	.section	__TEXT,__text,regular,pure_instructions
	.build_version macos, 13, 0	sdk_version 13, 1
	.globl	__Z13saveRegistersP7Context     ; -- Begin function _Z13saveRegistersP7Context
	.p2align	2
__Z13saveRegistersP7Context:            ; @_Z13saveRegistersP7Context
	.cfi_startproc
; %bb.0:
	sub	sp, sp, #16
	.cfi_def_cfa_offset 16
	str	x0, [sp, #8]
	; InlineAsm Start
	mov	x0, sp
	; InlineAsm End
	ldr	x9, [sp, #8]
	; InlineAsm Start
	mov	x8, x0
	; InlineAsm End
	str	x8, [x9]
	ldr	x9, [sp, #8]
	; InlineAsm Start
	mov	x8, x1
	; InlineAsm End
	str	x8, [x9, #8]
	ldr	x9, [sp, #8]
	; InlineAsm Start
	mov	x8, x2
	; InlineAsm End
	str	x8, [x9, #16]
	ldr	x9, [sp, #8]
	; InlineAsm Start
	mov	x8, x3
	; InlineAsm End
	str	x8, [x9, #24]
	ldr	x9, [sp, #8]
	; InlineAsm Start
	mov	x8, x4
	; InlineAsm End
	str	x8, [x9, #32]
	ldr	x9, [sp, #8]
	; InlineAsm Start
	mov	x8, x5
	; InlineAsm End
	str	x8, [x9, #40]
	ldr	x9, [sp, #8]
	; InlineAsm Start
	mov	x8, x6
	; InlineAsm End
	str	x8, [x9, #48]
	ldr	x9, [sp, #8]
	; InlineAsm Start
	mov	x8, x7
	; InlineAsm End
	str	x8, [x9, #56]
	ldr	x9, [sp, #8]
	; InlineAsm Start
	mov	x8, x8
	; InlineAsm End
	str	x8, [x9, #64]
	ldr	x9, [sp, #8]
	; InlineAsm Start
	mov	x8, x9
	; InlineAsm End
	str	x8, [x9, #72]
	ldr	x9, [sp, #8]
	; InlineAsm Start
	mov	x8, x10
	; InlineAsm End
	str	x8, [x9, #80]
	ldr	x9, [sp, #8]
	; InlineAsm Start
	mov	x8, x11
	; InlineAsm End
	str	x8, [x9, #88]
	ldr	x9, [sp, #8]
	; InlineAsm Start
	mov	x8, x12
	; InlineAsm End
	str	x8, [x9, #96]
	ldr	x9, [sp, #8]
	; InlineAsm Start
	mov	x8, x13
	; InlineAsm End
	str	x8, [x9, #104]
	ldr	x9, [sp, #8]
	; InlineAsm Start
	mov	x8, x14
	; InlineAsm End
	str	x8, [x9, #112]
	ldr	x9, [sp, #8]
	; InlineAsm Start
	mov	x8, x15
	; InlineAsm End
	str	x8, [x9, #120]
	ldr	x9, [sp, #8]
	; InlineAsm Start
	mov	x8, sp
	; InlineAsm End
	str	x8, [x9, #128]
	add	sp, sp, #16
	ret
	.cfi_endproc
                                        ; -- End function
	.globl	__Z13loadRegistersP7Context     ; -- Begin function _Z13loadRegistersP7Context
	.p2align	2
__Z13loadRegistersP7Context:            ; @_Z13loadRegistersP7Context
	.cfi_startproc
; %bb.0:
	sub	sp, sp, #16
	.cfi_def_cfa_offset 16
	str	x0, [sp, #8]
	; InlineAsm Start
	mov	x0, sp
	; InlineAsm End
	ldr	x8, [sp, #8]
	ldr	x8, [x8]
	; InlineAsm Start
	mov	x0, x8
	; InlineAsm End
	ldr	x8, [sp, #8]
	ldr	x8, [x8, #8]
	; InlineAsm Start
	mov	x1, x8
	; InlineAsm End
	ldr	x8, [sp, #8]
	ldr	x8, [x8, #16]
	; InlineAsm Start
	mov	x2, x8
	; InlineAsm End
	ldr	x8, [sp, #8]
	ldr	x8, [x8, #24]
	; InlineAsm Start
	mov	x3, x8
	; InlineAsm End
	ldr	x8, [sp, #8]
	ldr	x8, [x8, #32]
	; InlineAsm Start
	mov	x4, x8
	; InlineAsm End
	ldr	x8, [sp, #8]
	ldr	x8, [x8, #40]
	; InlineAsm Start
	mov	x5, x8
	; InlineAsm End
	ldr	x8, [sp, #8]
	ldr	x8, [x8, #48]
	; InlineAsm Start
	mov	x6, x8
	; InlineAsm End
	ldr	x8, [sp, #8]
	ldr	x8, [x8, #56]
	; InlineAsm Start
	mov	x7, x8
	; InlineAsm End
	ldr	x8, [sp, #8]
	ldr	x8, [x8, #64]
	; InlineAsm Start
	mov	x8, x8
	; InlineAsm End
	ldr	x8, [sp, #8]
	ldr	x8, [x8, #72]
	; InlineAsm Start
	mov	x9, x8
	; InlineAsm End
	ldr	x8, [sp, #8]
	ldr	x8, [x8, #80]
	; InlineAsm Start
	mov	x10, x8
	; InlineAsm End
	ldr	x8, [sp, #8]
	ldr	x8, [x8, #88]
	; InlineAsm Start
	mov	x11, x8
	; InlineAsm End
	ldr	x8, [sp, #8]
	ldr	x8, [x8, #96]
	; InlineAsm Start
	mov	x12, x8
	; InlineAsm End
	ldr	x8, [sp, #8]
	ldr	x8, [x8, #104]
	; InlineAsm Start
	mov	x13, x8
	; InlineAsm End
	ldr	x8, [sp, #8]
	ldr	x8, [x8, #112]
	; InlineAsm Start
	mov	x14, x8
	; InlineAsm End
	ldr	x8, [sp, #8]
	ldr	x8, [x8, #120]
	; InlineAsm Start
	mov	x15, x8
	; InlineAsm End
	ldr	x8, [sp, #8]
	ldr	x8, [x8, #128]
	; InlineAsm Start
	mov	sp, x8
	; InlineAsm End
	add	sp, sp, #16
	ret
	.cfi_endproc
                                        ; -- End function
	.globl	__Z12launchThreadPFviEPv        ; -- Begin function _Z12launchThreadPFviEPv
	.p2align	2
__Z12launchThreadPFviEPv:               ; @_Z12launchThreadPFviEPv
	.cfi_startproc
; %bb.0:
	sub	sp, sp, #32
	stp	x29, x30, [sp, #16]             ; 16-byte Folded Spill
	add	x29, sp, #16
	.cfi_def_cfa w29, 16
	.cfi_offset w30, -8
	.cfi_offset w29, -16
	str	x0, [sp, #8]
	mov	x8, sp
	str	x1, [sp]
	; InlineAsm Start
	mov	sp, x8
	; InlineAsm End
	adrp	x8, _numThreads@PAGE
	ldr	w8, [x8, _numThreads@PAGEOFF]
	subs	w8, w8, #1
	adrp	x9, _currentThread@PAGE
	str	w8, [x9, _currentThread@PAGEOFF]
	ldr	x8, [sp, #8]
	ldr	w0, [x9, _currentThread@PAGEOFF]
	blr	x8
	ldp	x29, x30, [sp, #16]             ; 16-byte Folded Reload
	add	sp, sp, #32
	ret
	.cfi_endproc
                                        ; -- End function
	.globl	__Z11startThreadPFviE           ; -- Begin function _Z11startThreadPFviE
	.p2align	2
__Z11startThreadPFviE:                  ; @_Z11startThreadPFviE
	.cfi_startproc
; %bb.0:
	sub	sp, sp, #48
	stp	x29, x30, [sp, #32]             ; 16-byte Folded Spill
	add	x29, sp, #32
	.cfi_def_cfa w29, 16
	.cfi_offset w30, -8
	.cfi_offset w29, -16
	stur	x0, [x29, #-8]
	mov	x0, #53248
	movk	x0, #132, lsl #16
	bl	_malloc
	add	x8, x0, #2125, lsl #12          ; =8704000
	adrp	x9, _stack@PAGE
	str	x9, [sp, #16]                   ; 8-byte Folded Spill
	str	x8, [x9, _stack@PAGEOFF]
	adrp	x9, _numThreads@PAGE
	ldr	w8, [x9, _numThreads@PAGEOFF]
	add	w8, w8, #1
	str	w8, [x9, _numThreads@PAGEOFF]
	adrp	x0, __ZNSt3__14coutE@GOTPAGE
	ldr	x0, [x0, __ZNSt3__14coutE@GOTPAGEOFF]
	str	x0, [sp]                        ; 8-byte Folded Spill
	adrp	x1, l_.str@PAGE
	add	x1, x1, l_.str@PAGEOFF
	bl	__ZNSt3__1lsINS_11char_traitsIcEEEERNS_13basic_ostreamIcT_EES6_PKc
	adrp	x1, __ZNSt3__14endlIcNS_11char_traitsIcEEEERNS_13basic_ostreamIT_T0_EES7_@GOTPAGE
	ldr	x1, [x1, __ZNSt3__14endlIcNS_11char_traitsIcEEEERNS_13basic_ostreamIT_T0_EES7_@GOTPAGEOFF]
	str	x1, [sp, #8]                    ; 8-byte Folded Spill
	bl	__ZNSt3__113basic_ostreamIcNS_11char_traitsIcEEElsEPFRS3_S4_E
	adrp	x8, _currentThread@PAGE
	ldrsw	x8, [x8, _currentThread@PAGEOFF]
	mov	x9, #136
	mul	x9, x8, x9
	adrp	x8, _threadStates@PAGE
	add	x8, x8, _threadStates@PAGEOFF
	add	x0, x8, x9
	bl	__Z13saveRegistersP7Context
	ldr	x0, [sp]                        ; 8-byte Folded Reload
	adrp	x1, l_.str.1@PAGE
	add	x1, x1, l_.str.1@PAGEOFF
	bl	__ZNSt3__1lsINS_11char_traitsIcEEEERNS_13basic_ostreamIcT_EES6_PKc
	ldr	x1, [sp, #8]                    ; 8-byte Folded Reload
	bl	__ZNSt3__113basic_ostreamIcNS_11char_traitsIcEEElsEPFRS3_S4_E
	ldr	x8, [sp, #16]                   ; 8-byte Folded Reload
	ldur	x0, [x29, #-8]
	ldr	x1, [x8, _stack@PAGEOFF]
	bl	__Z12launchThreadPFviEPv
	ldp	x29, x30, [sp, #32]             ; 16-byte Folded Reload
	add	sp, sp, #48
	ret
	.cfi_endproc
                                        ; -- End function
	.globl	__ZNSt3__1lsINS_11char_traitsIcEEEERNS_13basic_ostreamIcT_EES6_PKc ; -- Begin function _ZNSt3__1lsINS_11char_traitsIcEEEERNS_13basic_ostreamIcT_EES6_PKc
	.weak_definition	__ZNSt3__1lsINS_11char_traitsIcEEEERNS_13basic_ostreamIcT_EES6_PKc
	.p2align	2
__ZNSt3__1lsINS_11char_traitsIcEEEERNS_13basic_ostreamIcT_EES6_PKc: ; @_ZNSt3__1lsINS_11char_traitsIcEEEERNS_13basic_ostreamIcT_EES6_PKc
	.cfi_startproc
; %bb.0:
	sub	sp, sp, #48
	stp	x29, x30, [sp, #32]             ; 16-byte Folded Spill
	add	x29, sp, #32
	.cfi_def_cfa w29, 16
	.cfi_offset w30, -8
	.cfi_offset w29, -16
	stur	x0, [x29, #-8]
	str	x1, [sp, #16]
	ldur	x8, [x29, #-8]
	str	x8, [sp, #8]                    ; 8-byte Folded Spill
	ldr	x8, [sp, #16]
	str	x8, [sp]                        ; 8-byte Folded Spill
	ldr	x0, [sp, #16]
	bl	__ZNSt3__111char_traitsIcE6lengthEPKc
	ldr	x1, [sp]                        ; 8-byte Folded Reload
	mov	x2, x0
	ldr	x0, [sp, #8]                    ; 8-byte Folded Reload
	bl	__ZNSt3__124__put_character_sequenceIcNS_11char_traitsIcEEEERNS_13basic_ostreamIT_T0_EES7_PKS4_m
	ldp	x29, x30, [sp, #32]             ; 16-byte Folded Reload
	add	sp, sp, #48
	ret
	.cfi_endproc
                                        ; -- End function
	.p2align	2                               ; -- Begin function _ZNSt3__113basic_ostreamIcNS_11char_traitsIcEEElsEPFRS3_S4_E
__ZNSt3__113basic_ostreamIcNS_11char_traitsIcEEElsEPFRS3_S4_E: ; @_ZNSt3__113basic_ostreamIcNS_11char_traitsIcEEElsEPFRS3_S4_E
	.cfi_startproc
; %bb.0:
	sub	sp, sp, #32
	stp	x29, x30, [sp, #16]             ; 16-byte Folded Spill
	add	x29, sp, #16
	.cfi_def_cfa w29, 16
	.cfi_offset w30, -8
	.cfi_offset w29, -16
	str	x0, [sp, #8]
	str	x1, [sp]
	ldr	x0, [sp, #8]
	ldr	x8, [sp]
	blr	x8
	ldp	x29, x30, [sp, #16]             ; 16-byte Folded Reload
	add	sp, sp, #32
	ret
	.cfi_endproc
                                        ; -- End function
	.globl	__ZNSt3__14endlIcNS_11char_traitsIcEEEERNS_13basic_ostreamIT_T0_EES7_ ; -- Begin function _ZNSt3__14endlIcNS_11char_traitsIcEEEERNS_13basic_ostreamIT_T0_EES7_
	.weak_definition	__ZNSt3__14endlIcNS_11char_traitsIcEEEERNS_13basic_ostreamIT_T0_EES7_
	.p2align	2
__ZNSt3__14endlIcNS_11char_traitsIcEEEERNS_13basic_ostreamIT_T0_EES7_: ; @_ZNSt3__14endlIcNS_11char_traitsIcEEEERNS_13basic_ostreamIT_T0_EES7_
	.cfi_startproc
; %bb.0:
	sub	sp, sp, #32
	stp	x29, x30, [sp, #16]             ; 16-byte Folded Spill
	add	x29, sp, #16
	.cfi_def_cfa w29, 16
	.cfi_offset w30, -8
	.cfi_offset w29, -16
	str	x0, [sp, #8]
	ldr	x8, [sp, #8]
	str	x8, [sp]                        ; 8-byte Folded Spill
	ldr	x8, [sp, #8]
	ldr	x9, [x8]
	ldur	x9, [x9, #-24]
	add	x0, x8, x9
	mov	w1, #10
	bl	__ZNKSt3__19basic_iosIcNS_11char_traitsIcEEE5widenEc
	mov	x8, x0
	ldr	x0, [sp]                        ; 8-byte Folded Reload
	sxtb	w1, w8
	bl	__ZNSt3__113basic_ostreamIcNS_11char_traitsIcEEE3putEc
	ldr	x0, [sp, #8]
	bl	__ZNSt3__113basic_ostreamIcNS_11char_traitsIcEEE5flushEv
	ldr	x0, [sp, #8]
	ldp	x29, x30, [sp, #16]             ; 16-byte Folded Reload
	add	sp, sp, #32
	ret
	.cfi_endproc
                                        ; -- End function
	.globl	__Z8shareCPUi                   ; -- Begin function _Z8shareCPUi
	.p2align	2
__Z8shareCPUi:                          ; @_Z8shareCPUi
	.cfi_startproc
; %bb.0:
	sub	sp, sp, #32
	stp	x29, x30, [sp, #16]             ; 16-byte Folded Spill
	add	x29, sp, #16
	.cfi_def_cfa w29, 16
	.cfi_offset w30, -8
	.cfi_offset w29, -16
	stur	w0, [x29, #-4]
	adrp	x8, _currentThread@PAGE
	str	x8, [sp]                        ; 8-byte Folded Spill
	ldrsw	x8, [x8, _currentThread@PAGEOFF]
	mov	x9, #136
	mul	x9, x8, x9
	adrp	x8, _threadStates@PAGE
	add	x8, x8, _threadStates@PAGEOFF
	add	x0, x8, x9
	bl	__Z13saveRegistersP7Context
	adrp	x0, __ZNSt3__14coutE@GOTPAGE
	ldr	x0, [x0, __ZNSt3__14coutE@GOTPAGEOFF]
	adrp	x1, l_.str.2@PAGE
	add	x1, x1, l_.str.2@PAGEOFF
	bl	__ZNSt3__1lsINS_11char_traitsIcEEEERNS_13basic_ostreamIcT_EES6_PKc
	ldr	x8, [sp]                        ; 8-byte Folded Reload
	ldr	w1, [x8, _currentThread@PAGEOFF]
	bl	__ZNSt3__113basic_ostreamIcNS_11char_traitsIcEEElsEi
	adrp	x1, l_.str.3@PAGE
	add	x1, x1, l_.str.3@PAGEOFF
	bl	__ZNSt3__1lsINS_11char_traitsIcEEEERNS_13basic_ostreamIcT_EES6_PKc
	adrp	x8, _numThreads@PAGE
	ldr	w1, [x8, _numThreads@PAGEOFF]
	bl	__ZNSt3__113basic_ostreamIcNS_11char_traitsIcEEElsEi
	adrp	x1, __ZNSt3__14endlIcNS_11char_traitsIcEEEERNS_13basic_ostreamIT_T0_EES7_@GOTPAGE
	ldr	x1, [x1, __ZNSt3__14endlIcNS_11char_traitsIcEEEERNS_13basic_ostreamIT_T0_EES7_@GOTPAGEOFF]
	bl	__ZNSt3__113basic_ostreamIcNS_11char_traitsIcEEElsEPFRS3_S4_E
	ldr	x8, [sp]                        ; 8-byte Folded Reload
	ldr	w8, [x8, _currentThread@PAGEOFF]
	subs	w8, w8, #1
	b.ne	LBB7_3
	b	LBB7_1
LBB7_1:
	adrp	x8, _numThreads@PAGE
	ldr	w8, [x8, _numThreads@PAGEOFF]
	subs	w8, w8, #2
	b.le	LBB7_3
	b	LBB7_2
LBB7_2:
	mov	w8, #2
	adrp	x9, _currentThread@PAGE
	str	w8, [x9, _currentThread@PAGEOFF]
	b	LBB7_7
LBB7_3:
	adrp	x8, _currentThread@PAGE
	ldr	w8, [x8, _currentThread@PAGEOFF]
	subs	w8, w8, #2
	b.ne	LBB7_5
	b	LBB7_4
LBB7_4:
	mov	w8, #1
	adrp	x9, _currentThread@PAGE
	str	w8, [x9, _currentThread@PAGEOFF]
	b	LBB7_6
LBB7_5:
	adrp	x8, _currentThread@PAGE
	str	wzr, [x8, _currentThread@PAGEOFF]
	b	LBB7_6
LBB7_6:
	b	LBB7_7
LBB7_7:
	ldp	x29, x30, [sp, #16]             ; 16-byte Folded Reload
	add	sp, sp, #32
	ret
	.cfi_endproc
                                        ; -- End function
	.globl	__Z5main1i                      ; -- Begin function _Z5main1i
	.p2align	2
__Z5main1i:                             ; @_Z5main1i
	.cfi_startproc
; %bb.0:
	sub	sp, sp, #32
	stp	x29, x30, [sp, #16]             ; 16-byte Folded Spill
	add	x29, sp, #16
	.cfi_def_cfa w29, 16
	.cfi_offset w30, -8
	.cfi_offset w29, -16
	stur	w0, [x29, #-4]
	b	LBB8_1
LBB8_1:                                 ; =>This Inner Loop Header: Depth=1
	adrp	x0, __ZNSt3__14coutE@GOTPAGE
	ldr	x0, [x0, __ZNSt3__14coutE@GOTPAGEOFF]
	adrp	x1, l_.str.4@PAGE
	add	x1, x1, l_.str.4@PAGEOFF
	bl	__ZNSt3__1lsINS_11char_traitsIcEEEERNS_13basic_ostreamIcT_EES6_PKc
	adrp	x1, __ZNSt3__14endlIcNS_11char_traitsIcEEEERNS_13basic_ostreamIT_T0_EES7_@GOTPAGE
	ldr	x1, [x1, __ZNSt3__14endlIcNS_11char_traitsIcEEEERNS_13basic_ostreamIT_T0_EES7_@GOTPAGEOFF]
	bl	__ZNSt3__113basic_ostreamIcNS_11char_traitsIcEEElsEPFRS3_S4_E
	mov	w0, #41248
	movk	w0, #7, lsl #16
	bl	_usleep
	ldur	w0, [x29, #-4]
	bl	__Z8shareCPUi
	b	LBB8_1
	.cfi_endproc
                                        ; -- End function
	.globl	__Z5main2i                      ; -- Begin function _Z5main2i
	.p2align	2
__Z5main2i:                             ; @_Z5main2i
	.cfi_startproc
; %bb.0:
	sub	sp, sp, #32
	stp	x29, x30, [sp, #16]             ; 16-byte Folded Spill
	add	x29, sp, #16
	.cfi_def_cfa w29, 16
	.cfi_offset w30, -8
	.cfi_offset w29, -16
	stur	w0, [x29, #-4]
	b	LBB9_1
LBB9_1:                                 ; =>This Inner Loop Header: Depth=1
	adrp	x0, __ZNSt3__14coutE@GOTPAGE
	ldr	x0, [x0, __ZNSt3__14coutE@GOTPAGEOFF]
	adrp	x1, l_.str.5@PAGE
	add	x1, x1, l_.str.5@PAGEOFF
	bl	__ZNSt3__1lsINS_11char_traitsIcEEEERNS_13basic_ostreamIcT_EES6_PKc
	adrp	x1, __ZNSt3__14endlIcNS_11char_traitsIcEEEERNS_13basic_ostreamIT_T0_EES7_@GOTPAGE
	ldr	x1, [x1, __ZNSt3__14endlIcNS_11char_traitsIcEEEERNS_13basic_ostreamIT_T0_EES7_@GOTPAGEOFF]
	bl	__ZNSt3__113basic_ostreamIcNS_11char_traitsIcEEElsEPFRS3_S4_E
	mov	w0, #41248
	movk	w0, #7, lsl #16
	bl	_usleep
	ldur	w0, [x29, #-4]
	bl	__Z8shareCPUi
	b	LBB9_1
	.cfi_endproc
                                        ; -- End function
	.globl	_main                           ; -- Begin function main
	.p2align	2
_main:                                  ; @main
	.cfi_startproc
; %bb.0:
	sub	sp, sp, #48
	stp	x29, x30, [sp, #32]             ; 16-byte Folded Spill
	add	x29, sp, #32
	.cfi_def_cfa w29, 16
	.cfi_offset w30, -8
	.cfi_offset w29, -16
	adrp	x0, __ZNSt3__14coutE@GOTPAGE
	ldr	x0, [x0, __ZNSt3__14coutE@GOTPAGEOFF]
	str	x0, [sp, #8]                    ; 8-byte Folded Spill
	adrp	x8, __ZNSt3__14endlIcNS_11char_traitsIcEEEERNS_13basic_ostreamIT_T0_EES7_@GOTPAGE
	ldr	x8, [x8, __ZNSt3__14endlIcNS_11char_traitsIcEEEERNS_13basic_ostreamIT_T0_EES7_@GOTPAGEOFF]
	str	x8, [sp, #16]                   ; 8-byte Folded Spill
	stur	wzr, [x29, #-4]
	adrp	x1, l_.str.6@PAGE
	add	x1, x1, l_.str.6@PAGEOFF
	bl	__ZNSt3__1lsINS_11char_traitsIcEEEERNS_13basic_ostreamIcT_EES6_PKc
	ldr	x1, [sp, #16]                   ; 8-byte Folded Reload
	bl	__ZNSt3__113basic_ostreamIcNS_11char_traitsIcEEElsEPFRS3_S4_E
	adrp	x0, __Z5main1i@PAGE
	add	x0, x0, __Z5main1i@PAGEOFF
	bl	__Z11startThreadPFviE
	ldr	x0, [sp, #8]                    ; 8-byte Folded Reload
	adrp	x1, l_.str.7@PAGE
	add	x1, x1, l_.str.7@PAGEOFF
	bl	__ZNSt3__1lsINS_11char_traitsIcEEEERNS_13basic_ostreamIcT_EES6_PKc
	ldr	x1, [sp, #16]                   ; 8-byte Folded Reload
	bl	__ZNSt3__113basic_ostreamIcNS_11char_traitsIcEEElsEPFRS3_S4_E
	adrp	x0, __Z5main2i@PAGE
	add	x0, x0, __Z5main2i@PAGEOFF
	bl	__Z11startThreadPFviE
	b	LBB10_1
LBB10_1:                                ; =>This Inner Loop Header: Depth=1
	ldr	x0, [sp, #8]                    ; 8-byte Folded Reload
	adrp	x1, l_.str.8@PAGE
	add	x1, x1, l_.str.8@PAGEOFF
	bl	__ZNSt3__1lsINS_11char_traitsIcEEEERNS_13basic_ostreamIcT_EES6_PKc
	ldr	x1, [sp, #16]                   ; 8-byte Folded Reload
	bl	__ZNSt3__113basic_ostreamIcNS_11char_traitsIcEEElsEPFRS3_S4_E
	mov	w0, #41248
	movk	w0, #7, lsl #16
	bl	_usleep
	mov	w0, #0
	bl	__Z8shareCPUi
	b	LBB10_1
	.cfi_endproc
                                        ; -- End function
	.globl	__ZNSt3__124__put_character_sequenceIcNS_11char_traitsIcEEEERNS_13basic_ostreamIT_T0_EES7_PKS4_m ; -- Begin function _ZNSt3__124__put_character_sequenceIcNS_11char_traitsIcEEEERNS_13basic_ostreamIT_T0_EES7_PKS4_m
	.weak_definition	__ZNSt3__124__put_character_sequenceIcNS_11char_traitsIcEEEERNS_13basic_ostreamIT_T0_EES7_PKS4_m
	.p2align	2
__ZNSt3__124__put_character_sequenceIcNS_11char_traitsIcEEEERNS_13basic_ostreamIT_T0_EES7_PKS4_m: ; @_ZNSt3__124__put_character_sequenceIcNS_11char_traitsIcEEEERNS_13basic_ostreamIT_T0_EES7_PKS4_m
Lfunc_begin0:
	.cfi_startproc
	.cfi_personality 155, ___gxx_personality_v0
	.cfi_lsda 16, Lexception0
; %bb.0:
	sub	sp, sp, #160
	stp	x29, x30, [sp, #144]            ; 16-byte Folded Spill
	add	x29, sp, #144
	.cfi_def_cfa w29, 16
	.cfi_offset w30, -8
	.cfi_offset w29, -16
	stur	x0, [x29, #-8]
	stur	x1, [x29, #-16]
	stur	x2, [x29, #-24]
	ldur	x1, [x29, #-8]
Ltmp2:
	sub	x0, x29, #40
	bl	__ZNSt3__113basic_ostreamIcNS_11char_traitsIcEEE6sentryC1ERS3_
Ltmp3:
	b	LBB11_1
LBB11_1:
Ltmp4:
	sub	x0, x29, #40
	bl	__ZNKSt3__113basic_ostreamIcNS_11char_traitsIcEEE6sentrycvbEv
	str	w0, [sp, #68]                   ; 4-byte Folded Spill
Ltmp5:
	b	LBB11_2
LBB11_2:
	ldr	w8, [sp, #68]                   ; 4-byte Folded Reload
	tbz	w8, #0, LBB11_15
	b	LBB11_3
LBB11_3:
	ldur	x1, [x29, #-8]
	add	x0, sp, #72
	bl	__ZNSt3__119ostreambuf_iteratorIcNS_11char_traitsIcEEEC1ERNS_13basic_ostreamIcS2_EE
	ldur	x8, [x29, #-16]
	str	x8, [sp, #56]                   ; 8-byte Folded Spill
	ldur	x8, [x29, #-8]
	ldr	x9, [x8]
	ldur	x9, [x9, #-24]
	add	x0, x8, x9
Ltmp6:
	bl	__ZNKSt3__18ios_base5flagsEv
	str	w0, [sp, #64]                   ; 4-byte Folded Spill
Ltmp7:
	b	LBB11_4
LBB11_4:
	ldr	w8, [sp, #64]                   ; 4-byte Folded Reload
	mov	w9, #176
	and	w8, w8, w9
	subs	w8, w8, #32
	b.ne	LBB11_6
	b	LBB11_5
LBB11_5:
	ldur	x8, [x29, #-16]
	ldur	x9, [x29, #-24]
	add	x8, x8, x9
	str	x8, [sp, #48]                   ; 8-byte Folded Spill
	b	LBB11_7
LBB11_6:
	ldur	x8, [x29, #-16]
	str	x8, [sp, #48]                   ; 8-byte Folded Spill
	b	LBB11_7
LBB11_7:
	ldr	x8, [sp, #48]                   ; 8-byte Folded Reload
	str	x8, [sp, #16]                   ; 8-byte Folded Spill
	ldur	x8, [x29, #-16]
	ldur	x9, [x29, #-24]
	add	x8, x8, x9
	str	x8, [sp, #24]                   ; 8-byte Folded Spill
	ldur	x8, [x29, #-8]
	ldr	x9, [x8]
	ldur	x9, [x9, #-24]
	add	x8, x8, x9
	str	x8, [sp, #32]                   ; 8-byte Folded Spill
	ldur	x8, [x29, #-8]
	ldr	x9, [x8]
	ldur	x9, [x9, #-24]
	add	x0, x8, x9
Ltmp8:
	bl	__ZNKSt3__19basic_iosIcNS_11char_traitsIcEEE4fillEv
	str	w0, [sp, #44]                   ; 4-byte Folded Spill
Ltmp9:
	b	LBB11_8
LBB11_8:
	ldr	w8, [sp, #44]                   ; 4-byte Folded Reload
	ldr	x4, [sp, #32]                   ; 8-byte Folded Reload
	ldr	x3, [sp, #24]                   ; 8-byte Folded Reload
	ldr	x2, [sp, #16]                   ; 8-byte Folded Reload
	ldr	x1, [sp, #56]                   ; 8-byte Folded Reload
	ldr	x0, [sp, #72]
Ltmp10:
	sxtb	w5, w8
	bl	__ZNSt3__116__pad_and_outputIcNS_11char_traitsIcEEEENS_19ostreambuf_iteratorIT_T0_EES6_PKS4_S8_S8_RNS_8ios_baseES4_
	str	x0, [sp, #8]                    ; 8-byte Folded Spill
Ltmp11:
	b	LBB11_9
LBB11_9:
	ldr	x8, [sp, #8]                    ; 8-byte Folded Reload
	sub	x0, x29, #64
	stur	x8, [x29, #-64]
	bl	__ZNKSt3__119ostreambuf_iteratorIcNS_11char_traitsIcEEE6failedEv
	tbz	w0, #0, LBB11_14
	b	LBB11_10
LBB11_10:
	ldur	x8, [x29, #-8]
	ldr	x9, [x8]
	ldur	x9, [x9, #-24]
	add	x0, x8, x9
Ltmp12:
	mov	w1, #5
	bl	__ZNSt3__19basic_iosIcNS_11char_traitsIcEEE8setstateEj
Ltmp13:
	b	LBB11_11
LBB11_11:
	b	LBB11_14
LBB11_12:
Ltmp19:
	mov	x8, x1
	stur	x0, [x29, #-48]
	stur	w8, [x29, #-52]
	b	LBB11_18
LBB11_13:
Ltmp14:
	mov	x8, x1
	stur	x0, [x29, #-48]
	stur	w8, [x29, #-52]
Ltmp15:
	sub	x0, x29, #40
	bl	__ZNSt3__113basic_ostreamIcNS_11char_traitsIcEEE6sentryD1Ev
Ltmp16:
	b	LBB11_17
LBB11_14:
	b	LBB11_15
LBB11_15:
Ltmp17:
	sub	x0, x29, #40
	bl	__ZNSt3__113basic_ostreamIcNS_11char_traitsIcEEE6sentryD1Ev
Ltmp18:
	b	LBB11_16
LBB11_16:
	b	LBB11_20
LBB11_17:
	b	LBB11_18
LBB11_18:
	ldur	x0, [x29, #-48]
	bl	___cxa_begin_catch
	ldur	x8, [x29, #-8]
	ldr	x9, [x8]
	ldur	x9, [x9, #-24]
	add	x0, x8, x9
Ltmp20:
	bl	__ZNSt3__18ios_base33__set_badbit_and_consider_rethrowEv
Ltmp21:
	b	LBB11_19
LBB11_19:
	bl	___cxa_end_catch
	b	LBB11_20
LBB11_20:
	ldur	x0, [x29, #-8]
	ldp	x29, x30, [sp, #144]            ; 16-byte Folded Reload
	add	sp, sp, #160
	ret
LBB11_21:
Ltmp22:
	mov	x8, x1
	stur	x0, [x29, #-48]
	stur	w8, [x29, #-52]
Ltmp23:
	bl	___cxa_end_catch
Ltmp24:
	b	LBB11_22
LBB11_22:
	b	LBB11_23
LBB11_23:
	ldur	x0, [x29, #-48]
	bl	__Unwind_Resume
LBB11_24:
Ltmp25:
	bl	___clang_call_terminate
Lfunc_end0:
	.cfi_endproc
	.section	__TEXT,__gcc_except_tab
	.p2align	2
GCC_except_table11:
Lexception0:
	.byte	255                             ; @LPStart Encoding = omit
	.byte	155                             ; @TType Encoding = indirect pcrel sdata4
	.uleb128 Lttbase0-Lttbaseref0
Lttbaseref0:
	.byte	1                               ; Call site Encoding = uleb128
	.uleb128 Lcst_end0-Lcst_begin0
Lcst_begin0:
	.uleb128 Ltmp2-Lfunc_begin0             ; >> Call Site 1 <<
	.uleb128 Ltmp3-Ltmp2                    ;   Call between Ltmp2 and Ltmp3
	.uleb128 Ltmp19-Lfunc_begin0            ;     jumps to Ltmp19
	.byte	1                               ;   On action: 1
	.uleb128 Ltmp4-Lfunc_begin0             ; >> Call Site 2 <<
	.uleb128 Ltmp13-Ltmp4                   ;   Call between Ltmp4 and Ltmp13
	.uleb128 Ltmp14-Lfunc_begin0            ;     jumps to Ltmp14
	.byte	1                               ;   On action: 1
	.uleb128 Ltmp15-Lfunc_begin0            ; >> Call Site 3 <<
	.uleb128 Ltmp16-Ltmp15                  ;   Call between Ltmp15 and Ltmp16
	.uleb128 Ltmp25-Lfunc_begin0            ;     jumps to Ltmp25
	.byte	1                               ;   On action: 1
	.uleb128 Ltmp17-Lfunc_begin0            ; >> Call Site 4 <<
	.uleb128 Ltmp18-Ltmp17                  ;   Call between Ltmp17 and Ltmp18
	.uleb128 Ltmp19-Lfunc_begin0            ;     jumps to Ltmp19
	.byte	1                               ;   On action: 1
	.uleb128 Ltmp18-Lfunc_begin0            ; >> Call Site 5 <<
	.uleb128 Ltmp20-Ltmp18                  ;   Call between Ltmp18 and Ltmp20
	.byte	0                               ;     has no landing pad
	.byte	0                               ;   On action: cleanup
	.uleb128 Ltmp20-Lfunc_begin0            ; >> Call Site 6 <<
	.uleb128 Ltmp21-Ltmp20                  ;   Call between Ltmp20 and Ltmp21
	.uleb128 Ltmp22-Lfunc_begin0            ;     jumps to Ltmp22
	.byte	0                               ;   On action: cleanup
	.uleb128 Ltmp21-Lfunc_begin0            ; >> Call Site 7 <<
	.uleb128 Ltmp23-Ltmp21                  ;   Call between Ltmp21 and Ltmp23
	.byte	0                               ;     has no landing pad
	.byte	0                               ;   On action: cleanup
	.uleb128 Ltmp23-Lfunc_begin0            ; >> Call Site 8 <<
	.uleb128 Ltmp24-Ltmp23                  ;   Call between Ltmp23 and Ltmp24
	.uleb128 Ltmp25-Lfunc_begin0            ;     jumps to Ltmp25
	.byte	1                               ;   On action: 1
	.uleb128 Ltmp24-Lfunc_begin0            ; >> Call Site 9 <<
	.uleb128 Lfunc_end0-Ltmp24              ;   Call between Ltmp24 and Lfunc_end0
	.byte	0                               ;     has no landing pad
	.byte	0                               ;   On action: cleanup
Lcst_end0:
	.byte	1                               ; >> Action Record 1 <<
                                        ;   Catch TypeInfo 1
	.byte	0                               ;   No further actions
	.p2align	2
                                        ; >> Catch TypeInfos <<
	.long	0                               ; TypeInfo 1
Lttbase0:
	.p2align	2
                                        ; -- End function
	.section	__TEXT,__text,regular,pure_instructions
	.globl	__ZNSt3__111char_traitsIcE6lengthEPKc ; -- Begin function _ZNSt3__111char_traitsIcE6lengthEPKc
	.weak_definition	__ZNSt3__111char_traitsIcE6lengthEPKc
	.p2align	2
__ZNSt3__111char_traitsIcE6lengthEPKc:  ; @_ZNSt3__111char_traitsIcE6lengthEPKc
	.cfi_startproc
; %bb.0:
	sub	sp, sp, #32
	stp	x29, x30, [sp, #16]             ; 16-byte Folded Spill
	add	x29, sp, #16
	.cfi_def_cfa w29, 16
	.cfi_offset w30, -8
	.cfi_offset w29, -16
	str	x0, [sp, #8]
	ldr	x0, [sp, #8]
	bl	_strlen
	ldp	x29, x30, [sp, #16]             ; 16-byte Folded Reload
	add	sp, sp, #32
	ret
	.cfi_endproc
                                        ; -- End function
	.p2align	2                               ; -- Begin function _ZNKSt3__113basic_ostreamIcNS_11char_traitsIcEEE6sentrycvbEv
__ZNKSt3__113basic_ostreamIcNS_11char_traitsIcEEE6sentrycvbEv: ; @_ZNKSt3__113basic_ostreamIcNS_11char_traitsIcEEE6sentrycvbEv
	.cfi_startproc
; %bb.0:
	sub	sp, sp, #16
	.cfi_def_cfa_offset 16
	str	x0, [sp, #8]
	ldr	x8, [sp, #8]
	ldrb	w8, [x8]
	and	w0, w8, #0x1
	add	sp, sp, #16
	ret
	.cfi_endproc
                                        ; -- End function
	.private_extern	__ZNSt3__116__pad_and_outputIcNS_11char_traitsIcEEEENS_19ostreambuf_iteratorIT_T0_EES6_PKS4_S8_S8_RNS_8ios_baseES4_ ; -- Begin function _ZNSt3__116__pad_and_outputIcNS_11char_traitsIcEEEENS_19ostreambuf_iteratorIT_T0_EES6_PKS4_S8_S8_RNS_8ios_baseES4_
	.globl	__ZNSt3__116__pad_and_outputIcNS_11char_traitsIcEEEENS_19ostreambuf_iteratorIT_T0_EES6_PKS4_S8_S8_RNS_8ios_baseES4_
	.weak_definition	__ZNSt3__116__pad_and_outputIcNS_11char_traitsIcEEEENS_19ostreambuf_iteratorIT_T0_EES6_PKS4_S8_S8_RNS_8ios_baseES4_
	.p2align	2
__ZNSt3__116__pad_and_outputIcNS_11char_traitsIcEEEENS_19ostreambuf_iteratorIT_T0_EES6_PKS4_S8_S8_RNS_8ios_baseES4_: ; @_ZNSt3__116__pad_and_outputIcNS_11char_traitsIcEEEENS_19ostreambuf_iteratorIT_T0_EES6_PKS4_S8_S8_RNS_8ios_baseES4_
Lfunc_begin1:
	.cfi_startproc
	.cfi_personality 155, ___gxx_personality_v0
	.cfi_lsda 16, Lexception1
; %bb.0:
	sub	sp, sp, #224
	stp	x29, x30, [sp, #208]            ; 16-byte Folded Spill
	add	x29, sp, #208
	.cfi_def_cfa w29, 16
	.cfi_offset w30, -8
	.cfi_offset w29, -16
	stur	x0, [x29, #-16]
	stur	x1, [x29, #-24]
	stur	x2, [x29, #-32]
	stur	x3, [x29, #-40]
	stur	x4, [x29, #-48]
	sturb	w5, [x29, #-49]
	ldur	x8, [x29, #-16]
	str	x8, [sp, #40]                   ; 8-byte Folded Spill
	bl	__ZNSt3__1L15__get_nullptr_tEv
	mov	x8, x0
	sub	x0, x29, #64
	stur	x8, [x29, #-64]
	bl	__ZNKSt3__19nullptr_tcvPT_INS_15basic_streambufIcNS_11char_traitsIcEEEEEEv
	ldr	x8, [sp, #40]                   ; 8-byte Folded Reload
	subs	x8, x8, x0
	b.ne	LBB14_2
	b	LBB14_1
LBB14_1:
	ldur	x8, [x29, #-16]
	stur	x8, [x29, #-8]
	b	LBB14_26
LBB14_2:
	ldur	x8, [x29, #-40]
	ldur	x9, [x29, #-24]
	subs	x8, x8, x9
	stur	x8, [x29, #-72]
	ldur	x0, [x29, #-48]
	bl	__ZNKSt3__18ios_base5widthEv
	stur	x0, [x29, #-80]
	ldur	x8, [x29, #-80]
	ldur	x9, [x29, #-72]
	subs	x8, x8, x9
	b.le	LBB14_4
	b	LBB14_3
LBB14_3:
	ldur	x9, [x29, #-72]
	ldur	x8, [x29, #-80]
	subs	x8, x8, x9
	stur	x8, [x29, #-80]
	b	LBB14_5
LBB14_4:
	stur	xzr, [x29, #-80]
	b	LBB14_5
LBB14_5:
	ldur	x8, [x29, #-32]
	ldur	x9, [x29, #-24]
	subs	x8, x8, x9
	stur	x8, [x29, #-88]
	ldur	x8, [x29, #-88]
	subs	x8, x8, #0
	b.le	LBB14_9
	b	LBB14_6
LBB14_6:
	ldur	x0, [x29, #-16]
	ldur	x1, [x29, #-24]
	ldur	x2, [x29, #-88]
	bl	__ZNSt3__115basic_streambufIcNS_11char_traitsIcEEE5sputnEPKcl
	ldur	x8, [x29, #-88]
	subs	x8, x0, x8
	b.eq	LBB14_8
	b	LBB14_7
LBB14_7:
	bl	__ZNSt3__1L15__get_nullptr_tEv
	mov	x8, x0
	sub	x0, x29, #96
	stur	x8, [x29, #-96]
	bl	__ZNKSt3__19nullptr_tcvPT_INS_15basic_streambufIcNS_11char_traitsIcEEEEEEv
	stur	x0, [x29, #-16]
	ldur	x8, [x29, #-16]
	stur	x8, [x29, #-8]
	b	LBB14_26
LBB14_8:
	b	LBB14_9
LBB14_9:
	ldur	x8, [x29, #-80]
	subs	x8, x8, #0
	b.le	LBB14_21
	b	LBB14_10
LBB14_10:
	ldur	x1, [x29, #-80]
	ldursb	w2, [x29, #-49]
	add	x0, sp, #88
	str	x0, [sp, #16]                   ; 8-byte Folded Spill
	bl	__ZNSt3__112basic_stringIcNS_11char_traitsIcEENS_9allocatorIcEEEC1Emc
	ldr	x0, [sp, #16]                   ; 8-byte Folded Reload
	ldur	x8, [x29, #-16]
	str	x8, [sp, #24]                   ; 8-byte Folded Spill
	bl	__ZNKSt3__112basic_stringIcNS_11char_traitsIcEENS_9allocatorIcEEE4dataEv
	mov	x1, x0
	ldr	x0, [sp, #24]                   ; 8-byte Folded Reload
	ldur	x2, [x29, #-80]
Ltmp27:
	bl	__ZNSt3__115basic_streambufIcNS_11char_traitsIcEEE5sputnEPKcl
	str	x0, [sp, #32]                   ; 8-byte Folded Spill
Ltmp28:
	b	LBB14_11
LBB14_11:
	ldr	x8, [sp, #32]                   ; 8-byte Folded Reload
	ldur	x9, [x29, #-80]
	subs	x8, x8, x9
	b.eq	LBB14_16
	b	LBB14_12
LBB14_12:
Ltmp29:
	bl	__ZNSt3__1L15__get_nullptr_tEv
	str	x0, [sp, #8]                    ; 8-byte Folded Spill
Ltmp30:
	b	LBB14_13
LBB14_13:
	ldr	x8, [sp, #8]                    ; 8-byte Folded Reload
	add	x0, sp, #64
	str	x8, [sp, #64]
Ltmp31:
	bl	__ZNKSt3__19nullptr_tcvPT_INS_15basic_streambufIcNS_11char_traitsIcEEEEEEv
	str	x0, [sp]                        ; 8-byte Folded Spill
Ltmp32:
	b	LBB14_14
LBB14_14:
	ldr	x8, [sp]                        ; 8-byte Folded Reload
	stur	x8, [x29, #-16]
	ldur	x8, [x29, #-16]
	stur	x8, [x29, #-8]
	mov	w8, #1
	str	w8, [sp, #60]
	b	LBB14_17
LBB14_15:
Ltmp33:
	mov	x8, x1
	str	x0, [sp, #80]
	str	w8, [sp, #76]
Ltmp34:
	add	x0, sp, #88
	bl	__ZNSt3__112basic_stringIcNS_11char_traitsIcEENS_9allocatorIcEEED1Ev
Ltmp35:
	b	LBB14_20
LBB14_16:
	str	wzr, [sp, #60]
	b	LBB14_17
LBB14_17:
	add	x0, sp, #88
	bl	__ZNSt3__112basic_stringIcNS_11char_traitsIcEENS_9allocatorIcEEED1Ev
	ldr	w8, [sp, #60]
	cbz	w8, LBB14_19
	b	LBB14_18
LBB14_18:
	b	LBB14_26
LBB14_19:
	b	LBB14_21
LBB14_20:
	b	LBB14_27
LBB14_21:
	ldur	x8, [x29, #-40]
	ldur	x9, [x29, #-32]
	subs	x8, x8, x9
	stur	x8, [x29, #-88]
	ldur	x8, [x29, #-88]
	subs	x8, x8, #0
	b.le	LBB14_25
	b	LBB14_22
LBB14_22:
	ldur	x0, [x29, #-16]
	ldur	x1, [x29, #-32]
	ldur	x2, [x29, #-88]
	bl	__ZNSt3__115basic_streambufIcNS_11char_traitsIcEEE5sputnEPKcl
	ldur	x8, [x29, #-88]
	subs	x8, x0, x8
	b.eq	LBB14_24
	b	LBB14_23
LBB14_23:
	bl	__ZNSt3__1L15__get_nullptr_tEv
	mov	x8, x0
	add	x0, sp, #48
	str	x8, [sp, #48]
	bl	__ZNKSt3__19nullptr_tcvPT_INS_15basic_streambufIcNS_11char_traitsIcEEEEEEv
	stur	x0, [x29, #-16]
	ldur	x8, [x29, #-16]
	stur	x8, [x29, #-8]
	b	LBB14_26
LBB14_24:
	b	LBB14_25
LBB14_25:
	ldur	x0, [x29, #-48]
	mov	x1, #0
	bl	__ZNSt3__18ios_base5widthEl
	ldur	x8, [x29, #-16]
	stur	x8, [x29, #-8]
	b	LBB14_26
LBB14_26:
	ldur	x0, [x29, #-8]
	ldp	x29, x30, [sp, #208]            ; 16-byte Folded Reload
	add	sp, sp, #224
	ret
LBB14_27:
	ldr	x0, [sp, #80]
	bl	__Unwind_Resume
LBB14_28:
Ltmp36:
	bl	___clang_call_terminate
; %bb.29:
Lfunc_end1:
	.cfi_endproc
	.section	__TEXT,__gcc_except_tab
	.p2align	2
GCC_except_table14:
Lexception1:
	.byte	255                             ; @LPStart Encoding = omit
	.byte	155                             ; @TType Encoding = indirect pcrel sdata4
	.uleb128 Lttbase1-Lttbaseref1
Lttbaseref1:
	.byte	1                               ; Call site Encoding = uleb128
	.uleb128 Lcst_end1-Lcst_begin1
Lcst_begin1:
	.uleb128 Lfunc_begin1-Lfunc_begin1      ; >> Call Site 1 <<
	.uleb128 Ltmp27-Lfunc_begin1            ;   Call between Lfunc_begin1 and Ltmp27
	.byte	0                               ;     has no landing pad
	.byte	0                               ;   On action: cleanup
	.uleb128 Ltmp27-Lfunc_begin1            ; >> Call Site 2 <<
	.uleb128 Ltmp32-Ltmp27                  ;   Call between Ltmp27 and Ltmp32
	.uleb128 Ltmp33-Lfunc_begin1            ;     jumps to Ltmp33
	.byte	0                               ;   On action: cleanup
	.uleb128 Ltmp34-Lfunc_begin1            ; >> Call Site 3 <<
	.uleb128 Ltmp35-Ltmp34                  ;   Call between Ltmp34 and Ltmp35
	.uleb128 Ltmp36-Lfunc_begin1            ;     jumps to Ltmp36
	.byte	1                               ;   On action: 1
	.uleb128 Ltmp35-Lfunc_begin1            ; >> Call Site 4 <<
	.uleb128 Lfunc_end1-Ltmp35              ;   Call between Ltmp35 and Lfunc_end1
	.byte	0                               ;     has no landing pad
	.byte	0                               ;   On action: cleanup
Lcst_end1:
	.byte	1                               ; >> Action Record 1 <<
                                        ;   Catch TypeInfo 1
	.byte	0                               ;   No further actions
	.p2align	2
                                        ; >> Catch TypeInfos <<
	.long	0                               ; TypeInfo 1
Lttbase1:
	.p2align	2
                                        ; -- End function
	.section	__TEXT,__text,regular,pure_instructions
	.p2align	2                               ; -- Begin function _ZNSt3__119ostreambuf_iteratorIcNS_11char_traitsIcEEEC1ERNS_13basic_ostreamIcS2_EE
__ZNSt3__119ostreambuf_iteratorIcNS_11char_traitsIcEEEC1ERNS_13basic_ostreamIcS2_EE: ; @_ZNSt3__119ostreambuf_iteratorIcNS_11char_traitsIcEEEC1ERNS_13basic_ostreamIcS2_EE
	.cfi_startproc
; %bb.0:
	sub	sp, sp, #48
	stp	x29, x30, [sp, #32]             ; 16-byte Folded Spill
	add	x29, sp, #32
	.cfi_def_cfa w29, 16
	.cfi_offset w30, -8
	.cfi_offset w29, -16
	stur	x0, [x29, #-8]
	str	x1, [sp, #16]
	ldur	x0, [x29, #-8]
	str	x0, [sp, #8]                    ; 8-byte Folded Spill
	ldr	x1, [sp, #16]
	bl	__ZNSt3__119ostreambuf_iteratorIcNS_11char_traitsIcEEEC2ERNS_13basic_ostreamIcS2_EE
	ldr	x0, [sp, #8]                    ; 8-byte Folded Reload
	ldp	x29, x30, [sp, #32]             ; 16-byte Folded Reload
	add	sp, sp, #48
	ret
	.cfi_endproc
                                        ; -- End function
	.p2align	2                               ; -- Begin function _ZNKSt3__18ios_base5flagsEv
__ZNKSt3__18ios_base5flagsEv:           ; @_ZNKSt3__18ios_base5flagsEv
	.cfi_startproc
; %bb.0:
	sub	sp, sp, #16
	.cfi_def_cfa_offset 16
	str	x0, [sp, #8]
	ldr	x8, [sp, #8]
	ldr	w0, [x8, #8]
	add	sp, sp, #16
	ret
	.cfi_endproc
                                        ; -- End function
	.p2align	2                               ; -- Begin function _ZNKSt3__19basic_iosIcNS_11char_traitsIcEEE4fillEv
__ZNKSt3__19basic_iosIcNS_11char_traitsIcEEE4fillEv: ; @_ZNKSt3__19basic_iosIcNS_11char_traitsIcEEE4fillEv
	.cfi_startproc
; %bb.0:
	sub	sp, sp, #32
	stp	x29, x30, [sp, #16]             ; 16-byte Folded Spill
	add	x29, sp, #16
	.cfi_def_cfa w29, 16
	.cfi_offset w30, -8
	.cfi_offset w29, -16
	str	x0, [sp, #8]
	ldr	x8, [sp, #8]
	str	x8, [sp]                        ; 8-byte Folded Spill
	bl	__ZNSt3__111char_traitsIcE3eofEv
	ldr	x8, [sp]                        ; 8-byte Folded Reload
	ldr	w1, [x8, #144]
	bl	__ZNSt3__111char_traitsIcE11eq_int_typeEii
	tbz	w0, #0, LBB17_2
	b	LBB17_1
LBB17_1:
	ldr	x0, [sp]                        ; 8-byte Folded Reload
	mov	w1, #32
	bl	__ZNKSt3__19basic_iosIcNS_11char_traitsIcEEE5widenEc
	ldr	x9, [sp]                        ; 8-byte Folded Reload
	sxtb	w8, w0
	str	w8, [x9, #144]
	b	LBB17_2
LBB17_2:
	ldr	x8, [sp]                        ; 8-byte Folded Reload
	ldr	w8, [x8, #144]
	sxtb	w0, w8
	ldp	x29, x30, [sp, #16]             ; 16-byte Folded Reload
	add	sp, sp, #32
	ret
	.cfi_endproc
                                        ; -- End function
	.p2align	2                               ; -- Begin function _ZNKSt3__119ostreambuf_iteratorIcNS_11char_traitsIcEEE6failedEv
__ZNKSt3__119ostreambuf_iteratorIcNS_11char_traitsIcEEE6failedEv: ; @_ZNKSt3__119ostreambuf_iteratorIcNS_11char_traitsIcEEE6failedEv
Lfunc_begin2:
	.cfi_startproc
	.cfi_personality 155, ___gxx_personality_v0
	.cfi_lsda 16, Lexception2
; %bb.0:
	sub	sp, sp, #64
	stp	x29, x30, [sp, #48]             ; 16-byte Folded Spill
	add	x29, sp, #48
	.cfi_def_cfa w29, 16
	.cfi_offset w30, -8
	.cfi_offset w29, -16
	stur	x0, [x29, #-8]
	ldur	x8, [x29, #-8]
	ldr	x8, [x8]
	str	x8, [sp]                        ; 8-byte Folded Spill
Ltmp38:
	bl	__ZNSt3__1L15__get_nullptr_tEv
	str	x0, [sp, #8]                    ; 8-byte Folded Spill
Ltmp39:
	b	LBB18_1
LBB18_1:
	ldr	x8, [sp, #8]                    ; 8-byte Folded Reload
	sub	x0, x29, #16
	stur	x8, [x29, #-16]
	bl	__ZNKSt3__19nullptr_tcvPT_INS_15basic_streambufIcNS_11char_traitsIcEEEEEEv
	ldr	x8, [sp]                        ; 8-byte Folded Reload
	subs	x8, x8, x0
	cset	w8, eq
	and	w0, w8, #0x1
	ldp	x29, x30, [sp, #48]             ; 16-byte Folded Reload
	add	sp, sp, #64
	ret
LBB18_2:
Ltmp40:
	mov	x8, x1
	str	x0, [sp, #24]
	str	w8, [sp, #20]
	b	LBB18_3
LBB18_3:
	ldr	x0, [sp, #24]
	bl	___cxa_call_unexpected
Lfunc_end2:
	.cfi_endproc
	.section	__TEXT,__gcc_except_tab
	.p2align	2
GCC_except_table18:
Lexception2:
	.byte	255                             ; @LPStart Encoding = omit
	.byte	155                             ; @TType Encoding = indirect pcrel sdata4
	.uleb128 Lttbase2-Lttbaseref2
Lttbaseref2:
	.byte	1                               ; Call site Encoding = uleb128
	.uleb128 Lcst_end2-Lcst_begin2
Lcst_begin2:
	.uleb128 Ltmp38-Lfunc_begin2            ; >> Call Site 1 <<
	.uleb128 Ltmp39-Ltmp38                  ;   Call between Ltmp38 and Ltmp39
	.uleb128 Ltmp40-Lfunc_begin2            ;     jumps to Ltmp40
	.byte	1                               ;   On action: 1
	.uleb128 Ltmp39-Lfunc_begin2            ; >> Call Site 2 <<
	.uleb128 Lfunc_end2-Ltmp39              ;   Call between Ltmp39 and Lfunc_end2
	.byte	0                               ;     has no landing pad
	.byte	0                               ;   On action: cleanup
Lcst_end2:
	.byte	127                             ; >> Action Record 1 <<
                                        ;   Filter TypeInfo -1
	.byte	0                               ;   No further actions
	.p2align	2
Lttbase2:
                                        ; >> Filter TypeInfos <<
	.byte	0
	.p2align	2
                                        ; -- End function
	.section	__TEXT,__text,regular,pure_instructions
	.p2align	2                               ; -- Begin function _ZNSt3__19basic_iosIcNS_11char_traitsIcEEE8setstateEj
__ZNSt3__19basic_iosIcNS_11char_traitsIcEEE8setstateEj: ; @_ZNSt3__19basic_iosIcNS_11char_traitsIcEEE8setstateEj
	.cfi_startproc
; %bb.0:
	sub	sp, sp, #32
	stp	x29, x30, [sp, #16]             ; 16-byte Folded Spill
	add	x29, sp, #16
	.cfi_def_cfa w29, 16
	.cfi_offset w30, -8
	.cfi_offset w29, -16
	str	x0, [sp, #8]
	str	w1, [sp, #4]
	ldr	x0, [sp, #8]
	ldr	w1, [sp, #4]
	bl	__ZNSt3__18ios_base8setstateEj
	ldp	x29, x30, [sp, #16]             ; 16-byte Folded Reload
	add	sp, sp, #32
	ret
	.cfi_endproc
                                        ; -- End function
	.private_extern	___clang_call_terminate ; -- Begin function __clang_call_terminate
	.globl	___clang_call_terminate
	.weak_definition	___clang_call_terminate
	.p2align	2
___clang_call_terminate:                ; @__clang_call_terminate
; %bb.0:
	stp	x29, x30, [sp, #-16]!           ; 16-byte Folded Spill
	bl	___cxa_begin_catch
	bl	__ZSt9terminatev
                                        ; -- End function
	.p2align	2                               ; -- Begin function _ZNSt3__1L15__get_nullptr_tEv
__ZNSt3__1L15__get_nullptr_tEv:         ; @_ZNSt3__1L15__get_nullptr_tEv
	.cfi_startproc
; %bb.0:
	sub	sp, sp, #32
	stp	x29, x30, [sp, #16]             ; 16-byte Folded Spill
	add	x29, sp, #16
	.cfi_def_cfa w29, 16
	.cfi_offset w30, -8
	.cfi_offset w29, -16
	add	x0, sp, #8
	mov	x1, #-1
	bl	__ZNSt3__19nullptr_tC1EMNS0_5__natEi
	ldr	x0, [sp, #8]
	ldp	x29, x30, [sp, #16]             ; 16-byte Folded Reload
	add	sp, sp, #32
	ret
	.cfi_endproc
                                        ; -- End function
	.p2align	2                               ; -- Begin function _ZNKSt3__19nullptr_tcvPT_INS_15basic_streambufIcNS_11char_traitsIcEEEEEEv
__ZNKSt3__19nullptr_tcvPT_INS_15basic_streambufIcNS_11char_traitsIcEEEEEEv: ; @_ZNKSt3__19nullptr_tcvPT_INS_15basic_streambufIcNS_11char_traitsIcEEEEEEv
	.cfi_startproc
; %bb.0:
	sub	sp, sp, #16
	.cfi_def_cfa_offset 16
	str	x0, [sp, #8]
	mov	x0, #0
	add	sp, sp, #16
	ret
	.cfi_endproc
                                        ; -- End function
	.p2align	2                               ; -- Begin function _ZNKSt3__18ios_base5widthEv
__ZNKSt3__18ios_base5widthEv:           ; @_ZNKSt3__18ios_base5widthEv
	.cfi_startproc
; %bb.0:
	sub	sp, sp, #16
	.cfi_def_cfa_offset 16
	str	x0, [sp, #8]
	ldr	x8, [sp, #8]
	ldr	x0, [x8, #24]
	add	sp, sp, #16
	ret
	.cfi_endproc
                                        ; -- End function
	.p2align	2                               ; -- Begin function _ZNSt3__115basic_streambufIcNS_11char_traitsIcEEE5sputnEPKcl
__ZNSt3__115basic_streambufIcNS_11char_traitsIcEEE5sputnEPKcl: ; @_ZNSt3__115basic_streambufIcNS_11char_traitsIcEEE5sputnEPKcl
	.cfi_startproc
; %bb.0:
	sub	sp, sp, #48
	stp	x29, x30, [sp, #32]             ; 16-byte Folded Spill
	add	x29, sp, #32
	.cfi_def_cfa w29, 16
	.cfi_offset w30, -8
	.cfi_offset w29, -16
	stur	x0, [x29, #-8]
	str	x1, [sp, #16]
	str	x2, [sp, #8]
	ldur	x0, [x29, #-8]
	ldr	x1, [sp, #16]
	ldr	x2, [sp, #8]
	ldr	x8, [x0]
	ldr	x8, [x8, #96]
	blr	x8
	ldp	x29, x30, [sp, #32]             ; 16-byte Folded Reload
	add	sp, sp, #48
	ret
	.cfi_endproc
                                        ; -- End function
	.p2align	2                               ; -- Begin function _ZNSt3__112basic_stringIcNS_11char_traitsIcEENS_9allocatorIcEEEC1Emc
__ZNSt3__112basic_stringIcNS_11char_traitsIcEENS_9allocatorIcEEEC1Emc: ; @_ZNSt3__112basic_stringIcNS_11char_traitsIcEENS_9allocatorIcEEEC1Emc
	.cfi_startproc
; %bb.0:
	sub	sp, sp, #48
	stp	x29, x30, [sp, #32]             ; 16-byte Folded Spill
	add	x29, sp, #32
	.cfi_def_cfa w29, 16
	.cfi_offset w30, -8
	.cfi_offset w29, -16
	stur	x0, [x29, #-8]
	str	x1, [sp, #16]
	strb	w2, [sp, #15]
	ldur	x0, [x29, #-8]
	str	x0, [sp]                        ; 8-byte Folded Spill
	ldr	x1, [sp, #16]
	ldrsb	w2, [sp, #15]
	bl	__ZNSt3__112basic_stringIcNS_11char_traitsIcEENS_9allocatorIcEEEC2Emc
	ldr	x0, [sp]                        ; 8-byte Folded Reload
	ldp	x29, x30, [sp, #32]             ; 16-byte Folded Reload
	add	sp, sp, #48
	ret
	.cfi_endproc
                                        ; -- End function
	.p2align	2                               ; -- Begin function _ZNKSt3__112basic_stringIcNS_11char_traitsIcEENS_9allocatorIcEEE4dataEv
__ZNKSt3__112basic_stringIcNS_11char_traitsIcEENS_9allocatorIcEEE4dataEv: ; @_ZNKSt3__112basic_stringIcNS_11char_traitsIcEENS_9allocatorIcEEE4dataEv
	.cfi_startproc
; %bb.0:
	sub	sp, sp, #32
	stp	x29, x30, [sp, #16]             ; 16-byte Folded Spill
	add	x29, sp, #16
	.cfi_def_cfa w29, 16
	.cfi_offset w30, -8
	.cfi_offset w29, -16
	str	x0, [sp, #8]
	ldr	x0, [sp, #8]
	bl	__ZNKSt3__112basic_stringIcNS_11char_traitsIcEENS_9allocatorIcEEE13__get_pointerEv
	bl	__ZNSt3__1L12__to_addressIKcEEPT_S3_
	ldp	x29, x30, [sp, #16]             ; 16-byte Folded Reload
	add	sp, sp, #32
	ret
	.cfi_endproc
                                        ; -- End function
	.p2align	2                               ; -- Begin function _ZNSt3__18ios_base5widthEl
__ZNSt3__18ios_base5widthEl:            ; @_ZNSt3__18ios_base5widthEl
	.cfi_startproc
; %bb.0:
	sub	sp, sp, #32
	.cfi_def_cfa_offset 32
	str	x0, [sp, #24]
	str	x1, [sp, #16]
	ldr	x9, [sp, #24]
	ldr	x8, [x9, #24]
	str	x8, [sp, #8]
	ldr	x8, [sp, #16]
	str	x8, [x9, #24]
	ldr	x0, [sp, #8]
	add	sp, sp, #32
	ret
	.cfi_endproc
                                        ; -- End function
	.p2align	2                               ; -- Begin function _ZNSt3__19nullptr_tC1EMNS0_5__natEi
__ZNSt3__19nullptr_tC1EMNS0_5__natEi:   ; @_ZNSt3__19nullptr_tC1EMNS0_5__natEi
	.cfi_startproc
; %bb.0:
	sub	sp, sp, #48
	stp	x29, x30, [sp, #32]             ; 16-byte Folded Spill
	add	x29, sp, #32
	.cfi_def_cfa w29, 16
	.cfi_offset w30, -8
	.cfi_offset w29, -16
	stur	x0, [x29, #-8]
	str	x1, [sp, #16]
	ldur	x0, [x29, #-8]
	str	x0, [sp, #8]                    ; 8-byte Folded Spill
	ldr	x1, [sp, #16]
	bl	__ZNSt3__19nullptr_tC2EMNS0_5__natEi
	ldr	x0, [sp, #8]                    ; 8-byte Folded Reload
	ldp	x29, x30, [sp, #32]             ; 16-byte Folded Reload
	add	sp, sp, #48
	ret
	.cfi_endproc
                                        ; -- End function
	.p2align	2                               ; -- Begin function _ZNSt3__19nullptr_tC2EMNS0_5__natEi
__ZNSt3__19nullptr_tC2EMNS0_5__natEi:   ; @_ZNSt3__19nullptr_tC2EMNS0_5__natEi
	.cfi_startproc
; %bb.0:
	sub	sp, sp, #16
	.cfi_def_cfa_offset 16
	str	x0, [sp, #8]
	str	x1, [sp]
	ldr	x0, [sp, #8]
                                        ; kill: def $x8 killed $xzr
	str	xzr, [x0]
	add	sp, sp, #16
	ret
	.cfi_endproc
                                        ; -- End function
	.p2align	2                               ; -- Begin function _ZNSt3__112basic_stringIcNS_11char_traitsIcEENS_9allocatorIcEEEC2Emc
__ZNSt3__112basic_stringIcNS_11char_traitsIcEENS_9allocatorIcEEEC2Emc: ; @_ZNSt3__112basic_stringIcNS_11char_traitsIcEENS_9allocatorIcEEEC2Emc
	.cfi_startproc
; %bb.0:
	sub	sp, sp, #48
	stp	x29, x30, [sp, #32]             ; 16-byte Folded Spill
	add	x29, sp, #32
	.cfi_def_cfa w29, 16
	.cfi_offset w30, -8
	.cfi_offset w29, -16
	stur	x0, [x29, #-8]
	str	x1, [sp, #16]
	strb	w2, [sp, #15]
	ldur	x0, [x29, #-8]
	str	x0, [sp]                        ; 8-byte Folded Spill
	add	x1, sp, #14
	add	x2, sp, #13
	bl	__ZNSt3__117__compressed_pairINS_12basic_stringIcNS_11char_traitsIcEENS_9allocatorIcEEE5__repES5_EC1INS_18__default_init_tagESA_EEOT_OT0_
	ldr	x0, [sp]                        ; 8-byte Folded Reload
	ldr	x1, [sp, #16]
	ldrsb	w2, [sp, #15]
	bl	__ZNSt3__112basic_stringIcNS_11char_traitsIcEENS_9allocatorIcEEE6__initEmc
	ldr	x0, [sp]                        ; 8-byte Folded Reload
	ldp	x29, x30, [sp, #32]             ; 16-byte Folded Reload
	add	sp, sp, #48
	ret
	.cfi_endproc
                                        ; -- End function
	.p2align	2                               ; -- Begin function _ZNSt3__117__compressed_pairINS_12basic_stringIcNS_11char_traitsIcEENS_9allocatorIcEEE5__repES5_EC1INS_18__default_init_tagESA_EEOT_OT0_
__ZNSt3__117__compressed_pairINS_12basic_stringIcNS_11char_traitsIcEENS_9allocatorIcEEE5__repES5_EC1INS_18__default_init_tagESA_EEOT_OT0_: ; @_ZNSt3__117__compressed_pairINS_12basic_stringIcNS_11char_traitsIcEENS_9allocatorIcEEE5__repES5_EC1INS_18__default_init_tagESA_EEOT_OT0_
	.cfi_startproc
; %bb.0:
	sub	sp, sp, #48
	stp	x29, x30, [sp, #32]             ; 16-byte Folded Spill
	add	x29, sp, #32
	.cfi_def_cfa w29, 16
	.cfi_offset w30, -8
	.cfi_offset w29, -16
	stur	x0, [x29, #-8]
	str	x1, [sp, #16]
	str	x2, [sp, #8]
	ldur	x0, [x29, #-8]
	str	x0, [sp]                        ; 8-byte Folded Spill
	ldr	x1, [sp, #16]
	ldr	x2, [sp, #8]
	bl	__ZNSt3__117__compressed_pairINS_12basic_stringIcNS_11char_traitsIcEENS_9allocatorIcEEE5__repES5_EC2INS_18__default_init_tagESA_EEOT_OT0_
	ldr	x0, [sp]                        ; 8-byte Folded Reload
	ldp	x29, x30, [sp, #32]             ; 16-byte Folded Reload
	add	sp, sp, #48
	ret
	.cfi_endproc
                                        ; -- End function
	.p2align	2                               ; -- Begin function _ZNSt3__117__compressed_pairINS_12basic_stringIcNS_11char_traitsIcEENS_9allocatorIcEEE5__repES5_EC2INS_18__default_init_tagESA_EEOT_OT0_
__ZNSt3__117__compressed_pairINS_12basic_stringIcNS_11char_traitsIcEENS_9allocatorIcEEE5__repES5_EC2INS_18__default_init_tagESA_EEOT_OT0_: ; @_ZNSt3__117__compressed_pairINS_12basic_stringIcNS_11char_traitsIcEENS_9allocatorIcEEE5__repES5_EC2INS_18__default_init_tagESA_EEOT_OT0_
	.cfi_startproc
; %bb.0:
	sub	sp, sp, #64
	stp	x29, x30, [sp, #48]             ; 16-byte Folded Spill
	add	x29, sp, #48
	.cfi_def_cfa w29, 16
	.cfi_offset w30, -8
	.cfi_offset w29, -16
	stur	x0, [x29, #-8]
	stur	x1, [x29, #-16]
	str	x2, [sp, #24]
	ldur	x8, [x29, #-8]
	str	x8, [sp, #8]                    ; 8-byte Folded Spill
	ldur	x0, [x29, #-16]
	bl	__ZNSt3__1L7forwardINS_18__default_init_tagEEEOT_RNS_16remove_referenceIS2_E4typeE
	ldr	x0, [sp, #8]                    ; 8-byte Folded Reload
	bl	__ZNSt3__122__compressed_pair_elemINS_12basic_stringIcNS_11char_traitsIcEENS_9allocatorIcEEE5__repELi0ELb0EEC2ENS_18__default_init_tagE
	ldr	x0, [sp, #24]
	bl	__ZNSt3__1L7forwardINS_18__default_init_tagEEEOT_RNS_16remove_referenceIS2_E4typeE
	ldr	x0, [sp, #8]                    ; 8-byte Folded Reload
	bl	__ZNSt3__122__compressed_pair_elemINS_9allocatorIcEELi1ELb1EEC2ENS_18__default_init_tagE
	ldr	x0, [sp, #8]                    ; 8-byte Folded Reload
	ldp	x29, x30, [sp, #48]             ; 16-byte Folded Reload
	add	sp, sp, #64
	ret
	.cfi_endproc
                                        ; -- End function
	.p2align	2                               ; -- Begin function _ZNSt3__1L7forwardINS_18__default_init_tagEEEOT_RNS_16remove_referenceIS2_E4typeE
__ZNSt3__1L7forwardINS_18__default_init_tagEEEOT_RNS_16remove_referenceIS2_E4typeE: ; @_ZNSt3__1L7forwardINS_18__default_init_tagEEEOT_RNS_16remove_referenceIS2_E4typeE
	.cfi_startproc
; %bb.0:
	sub	sp, sp, #16
	.cfi_def_cfa_offset 16
	str	x0, [sp, #8]
	ldr	x0, [sp, #8]
	add	sp, sp, #16
	ret
	.cfi_endproc
                                        ; -- End function
	.p2align	2                               ; -- Begin function _ZNSt3__122__compressed_pair_elemINS_12basic_stringIcNS_11char_traitsIcEENS_9allocatorIcEEE5__repELi0ELb0EEC2ENS_18__default_init_tagE
__ZNSt3__122__compressed_pair_elemINS_12basic_stringIcNS_11char_traitsIcEENS_9allocatorIcEEE5__repELi0ELb0EEC2ENS_18__default_init_tagE: ; @_ZNSt3__122__compressed_pair_elemINS_12basic_stringIcNS_11char_traitsIcEENS_9allocatorIcEEE5__repELi0ELb0EEC2ENS_18__default_init_tagE
	.cfi_startproc
; %bb.0:
	sub	sp, sp, #16
	.cfi_def_cfa_offset 16
	str	x0, [sp]
	ldr	x0, [sp]
	add	sp, sp, #16
	ret
	.cfi_endproc
                                        ; -- End function
	.p2align	2                               ; -- Begin function _ZNSt3__122__compressed_pair_elemINS_9allocatorIcEELi1ELb1EEC2ENS_18__default_init_tagE
__ZNSt3__122__compressed_pair_elemINS_9allocatorIcEELi1ELb1EEC2ENS_18__default_init_tagE: ; @_ZNSt3__122__compressed_pair_elemINS_9allocatorIcEELi1ELb1EEC2ENS_18__default_init_tagE
	.cfi_startproc
; %bb.0:
	sub	sp, sp, #48
	stp	x29, x30, [sp, #32]             ; 16-byte Folded Spill
	add	x29, sp, #32
	.cfi_def_cfa w29, 16
	.cfi_offset w30, -8
	.cfi_offset w29, -16
	str	x0, [sp, #16]
	ldr	x0, [sp, #16]
	str	x0, [sp, #8]                    ; 8-byte Folded Spill
	bl	__ZNSt3__19allocatorIcEC2Ev
	ldr	x0, [sp, #8]                    ; 8-byte Folded Reload
	ldp	x29, x30, [sp, #32]             ; 16-byte Folded Reload
	add	sp, sp, #48
	ret
	.cfi_endproc
                                        ; -- End function
	.p2align	2                               ; -- Begin function _ZNSt3__19allocatorIcEC2Ev
__ZNSt3__19allocatorIcEC2Ev:            ; @_ZNSt3__19allocatorIcEC2Ev
	.cfi_startproc
; %bb.0:
	sub	sp, sp, #32
	stp	x29, x30, [sp, #16]             ; 16-byte Folded Spill
	add	x29, sp, #16
	.cfi_def_cfa w29, 16
	.cfi_offset w30, -8
	.cfi_offset w29, -16
	str	x0, [sp, #8]
	ldr	x0, [sp, #8]
	str	x0, [sp]                        ; 8-byte Folded Spill
	bl	__ZNSt3__116__non_trivial_ifILb1ENS_9allocatorIcEEEC2Ev
	ldr	x0, [sp]                        ; 8-byte Folded Reload
	ldp	x29, x30, [sp, #16]             ; 16-byte Folded Reload
	add	sp, sp, #32
	ret
	.cfi_endproc
                                        ; -- End function
	.p2align	2                               ; -- Begin function _ZNSt3__116__non_trivial_ifILb1ENS_9allocatorIcEEEC2Ev
__ZNSt3__116__non_trivial_ifILb1ENS_9allocatorIcEEEC2Ev: ; @_ZNSt3__116__non_trivial_ifILb1ENS_9allocatorIcEEEC2Ev
	.cfi_startproc
; %bb.0:
	sub	sp, sp, #16
	.cfi_def_cfa_offset 16
	str	x0, [sp, #8]
	ldr	x0, [sp, #8]
	add	sp, sp, #16
	ret
	.cfi_endproc
                                        ; -- End function
	.p2align	2                               ; -- Begin function _ZNSt3__1L12__to_addressIKcEEPT_S3_
__ZNSt3__1L12__to_addressIKcEEPT_S3_:   ; @_ZNSt3__1L12__to_addressIKcEEPT_S3_
	.cfi_startproc
; %bb.0:
	sub	sp, sp, #16
	.cfi_def_cfa_offset 16
	str	x0, [sp, #8]
	ldr	x0, [sp, #8]
	add	sp, sp, #16
	ret
	.cfi_endproc
                                        ; -- End function
	.p2align	2                               ; -- Begin function _ZNKSt3__112basic_stringIcNS_11char_traitsIcEENS_9allocatorIcEEE13__get_pointerEv
__ZNKSt3__112basic_stringIcNS_11char_traitsIcEENS_9allocatorIcEEE13__get_pointerEv: ; @_ZNKSt3__112basic_stringIcNS_11char_traitsIcEENS_9allocatorIcEEE13__get_pointerEv
	.cfi_startproc
; %bb.0:
	sub	sp, sp, #48
	stp	x29, x30, [sp, #32]             ; 16-byte Folded Spill
	add	x29, sp, #32
	.cfi_def_cfa w29, 16
	.cfi_offset w30, -8
	.cfi_offset w29, -16
	stur	x0, [x29, #-8]
	ldur	x0, [x29, #-8]
	str	x0, [sp, #16]                   ; 8-byte Folded Spill
	bl	__ZNKSt3__112basic_stringIcNS_11char_traitsIcEENS_9allocatorIcEEE9__is_longEv
	tbz	w0, #0, LBB39_2
	b	LBB39_1
LBB39_1:
	ldr	x0, [sp, #16]                   ; 8-byte Folded Reload
	bl	__ZNKSt3__112basic_stringIcNS_11char_traitsIcEENS_9allocatorIcEEE18__get_long_pointerEv
	str	x0, [sp, #8]                    ; 8-byte Folded Spill
	b	LBB39_3
LBB39_2:
	ldr	x0, [sp, #16]                   ; 8-byte Folded Reload
	bl	__ZNKSt3__112basic_stringIcNS_11char_traitsIcEENS_9allocatorIcEEE19__get_short_pointerEv
	str	x0, [sp, #8]                    ; 8-byte Folded Spill
	b	LBB39_3
LBB39_3:
	ldr	x0, [sp, #8]                    ; 8-byte Folded Reload
	ldp	x29, x30, [sp, #32]             ; 16-byte Folded Reload
	add	sp, sp, #48
	ret
	.cfi_endproc
                                        ; -- End function
	.p2align	2                               ; -- Begin function _ZNKSt3__112basic_stringIcNS_11char_traitsIcEENS_9allocatorIcEEE9__is_longEv
__ZNKSt3__112basic_stringIcNS_11char_traitsIcEENS_9allocatorIcEEE9__is_longEv: ; @_ZNKSt3__112basic_stringIcNS_11char_traitsIcEENS_9allocatorIcEEE9__is_longEv
	.cfi_startproc
; %bb.0:
	sub	sp, sp, #32
	stp	x29, x30, [sp, #16]             ; 16-byte Folded Spill
	add	x29, sp, #16
	.cfi_def_cfa w29, 16
	.cfi_offset w30, -8
	.cfi_offset w29, -16
	str	x0, [sp, #8]
	ldr	x0, [sp, #8]
	bl	__ZNKSt3__117__compressed_pairINS_12basic_stringIcNS_11char_traitsIcEENS_9allocatorIcEEE5__repES5_E5firstEv
	ldrb	w8, [x0, #23]
                                        ; kill: def $x8 killed $w8
	ands	x8, x8, #0x80
	cset	w8, ne
	and	w0, w8, #0x1
	ldp	x29, x30, [sp, #16]             ; 16-byte Folded Reload
	add	sp, sp, #32
	ret
	.cfi_endproc
                                        ; -- End function
	.p2align	2                               ; -- Begin function _ZNKSt3__112basic_stringIcNS_11char_traitsIcEENS_9allocatorIcEEE18__get_long_pointerEv
__ZNKSt3__112basic_stringIcNS_11char_traitsIcEENS_9allocatorIcEEE18__get_long_pointerEv: ; @_ZNKSt3__112basic_stringIcNS_11char_traitsIcEENS_9allocatorIcEEE18__get_long_pointerEv
	.cfi_startproc
; %bb.0:
	sub	sp, sp, #32
	stp	x29, x30, [sp, #16]             ; 16-byte Folded Spill
	add	x29, sp, #16
	.cfi_def_cfa w29, 16
	.cfi_offset w30, -8
	.cfi_offset w29, -16
	str	x0, [sp, #8]
	ldr	x0, [sp, #8]
	bl	__ZNKSt3__117__compressed_pairINS_12basic_stringIcNS_11char_traitsIcEENS_9allocatorIcEEE5__repES5_E5firstEv
	ldr	x0, [x0]
	ldp	x29, x30, [sp, #16]             ; 16-byte Folded Reload
	add	sp, sp, #32
	ret
	.cfi_endproc
                                        ; -- End function
	.p2align	2                               ; -- Begin function _ZNKSt3__112basic_stringIcNS_11char_traitsIcEENS_9allocatorIcEEE19__get_short_pointerEv
__ZNKSt3__112basic_stringIcNS_11char_traitsIcEENS_9allocatorIcEEE19__get_short_pointerEv: ; @_ZNKSt3__112basic_stringIcNS_11char_traitsIcEENS_9allocatorIcEEE19__get_short_pointerEv
	.cfi_startproc
; %bb.0:
	sub	sp, sp, #32
	stp	x29, x30, [sp, #16]             ; 16-byte Folded Spill
	add	x29, sp, #16
	.cfi_def_cfa w29, 16
	.cfi_offset w30, -8
	.cfi_offset w29, -16
	str	x0, [sp, #8]
	ldr	x0, [sp, #8]
	bl	__ZNKSt3__117__compressed_pairINS_12basic_stringIcNS_11char_traitsIcEENS_9allocatorIcEEE5__repES5_E5firstEv
	bl	__ZNSt3__114pointer_traitsIPKcE10pointer_toERS1_
	ldp	x29, x30, [sp, #16]             ; 16-byte Folded Reload
	add	sp, sp, #32
	ret
	.cfi_endproc
                                        ; -- End function
	.p2align	2                               ; -- Begin function _ZNKSt3__117__compressed_pairINS_12basic_stringIcNS_11char_traitsIcEENS_9allocatorIcEEE5__repES5_E5firstEv
__ZNKSt3__117__compressed_pairINS_12basic_stringIcNS_11char_traitsIcEENS_9allocatorIcEEE5__repES5_E5firstEv: ; @_ZNKSt3__117__compressed_pairINS_12basic_stringIcNS_11char_traitsIcEENS_9allocatorIcEEE5__repES5_E5firstEv
	.cfi_startproc
; %bb.0:
	sub	sp, sp, #32
	stp	x29, x30, [sp, #16]             ; 16-byte Folded Spill
	add	x29, sp, #16
	.cfi_def_cfa w29, 16
	.cfi_offset w30, -8
	.cfi_offset w29, -16
	str	x0, [sp, #8]
	ldr	x0, [sp, #8]
	bl	__ZNKSt3__122__compressed_pair_elemINS_12basic_stringIcNS_11char_traitsIcEENS_9allocatorIcEEE5__repELi0ELb0EE5__getEv
	ldp	x29, x30, [sp, #16]             ; 16-byte Folded Reload
	add	sp, sp, #32
	ret
	.cfi_endproc
                                        ; -- End function
	.p2align	2                               ; -- Begin function _ZNKSt3__122__compressed_pair_elemINS_12basic_stringIcNS_11char_traitsIcEENS_9allocatorIcEEE5__repELi0ELb0EE5__getEv
__ZNKSt3__122__compressed_pair_elemINS_12basic_stringIcNS_11char_traitsIcEENS_9allocatorIcEEE5__repELi0ELb0EE5__getEv: ; @_ZNKSt3__122__compressed_pair_elemINS_12basic_stringIcNS_11char_traitsIcEENS_9allocatorIcEEE5__repELi0ELb0EE5__getEv
	.cfi_startproc
; %bb.0:
	sub	sp, sp, #16
	.cfi_def_cfa_offset 16
	str	x0, [sp, #8]
	ldr	x0, [sp, #8]
	add	sp, sp, #16
	ret
	.cfi_endproc
                                        ; -- End function
	.p2align	2                               ; -- Begin function _ZNSt3__114pointer_traitsIPKcE10pointer_toERS1_
__ZNSt3__114pointer_traitsIPKcE10pointer_toERS1_: ; @_ZNSt3__114pointer_traitsIPKcE10pointer_toERS1_
	.cfi_startproc
; %bb.0:
	sub	sp, sp, #32
	stp	x29, x30, [sp, #16]             ; 16-byte Folded Spill
	add	x29, sp, #16
	.cfi_def_cfa w29, 16
	.cfi_offset w30, -8
	.cfi_offset w29, -16
	str	x0, [sp, #8]
	ldr	x0, [sp, #8]
	bl	__ZNSt3__1L9addressofIKcEEPT_RS2_
	ldp	x29, x30, [sp, #16]             ; 16-byte Folded Reload
	add	sp, sp, #32
	ret
	.cfi_endproc
                                        ; -- End function
	.p2align	2                               ; -- Begin function _ZNSt3__1L9addressofIKcEEPT_RS2_
__ZNSt3__1L9addressofIKcEEPT_RS2_:      ; @_ZNSt3__1L9addressofIKcEEPT_RS2_
	.cfi_startproc
; %bb.0:
	sub	sp, sp, #16
	.cfi_def_cfa_offset 16
	str	x0, [sp, #8]
	ldr	x0, [sp, #8]
	add	sp, sp, #16
	ret
	.cfi_endproc
                                        ; -- End function
	.p2align	2                               ; -- Begin function _ZNSt3__119ostreambuf_iteratorIcNS_11char_traitsIcEEEC2ERNS_13basic_ostreamIcS2_EE
__ZNSt3__119ostreambuf_iteratorIcNS_11char_traitsIcEEEC2ERNS_13basic_ostreamIcS2_EE: ; @_ZNSt3__119ostreambuf_iteratorIcNS_11char_traitsIcEEEC2ERNS_13basic_ostreamIcS2_EE
Lfunc_begin3:
	.cfi_startproc
	.cfi_personality 155, ___gxx_personality_v0
	.cfi_lsda 16, Lexception3
; %bb.0:
	sub	sp, sp, #64
	stp	x29, x30, [sp, #48]             ; 16-byte Folded Spill
	add	x29, sp, #48
	.cfi_def_cfa w29, 16
	.cfi_offset w30, -8
	.cfi_offset w29, -16
	stur	x0, [x29, #-8]
	stur	x1, [x29, #-16]
	ldur	x8, [x29, #-8]
	str	x8, [sp]                        ; 8-byte Folded Spill
	ldur	x8, [x29, #-16]
	ldr	x9, [x8]
	ldur	x9, [x9, #-24]
Ltmp51:
	add	x0, x8, x9
	bl	__ZNKSt3__19basic_iosIcNS_11char_traitsIcEEE5rdbufEv
	str	x0, [sp, #8]                    ; 8-byte Folded Spill
Ltmp52:
	b	LBB47_1
LBB47_1:
	ldr	x0, [sp]                        ; 8-byte Folded Reload
	ldr	x8, [sp, #8]                    ; 8-byte Folded Reload
	str	x8, [x0]
	ldp	x29, x30, [sp, #48]             ; 16-byte Folded Reload
	add	sp, sp, #64
	ret
LBB47_2:
Ltmp53:
	mov	x8, x1
	str	x0, [sp, #24]
	str	w8, [sp, #20]
	b	LBB47_3
LBB47_3:
	ldr	x0, [sp, #24]
	bl	___cxa_call_unexpected
Lfunc_end3:
	.cfi_endproc
	.section	__TEXT,__gcc_except_tab
	.p2align	2
GCC_except_table47:
Lexception3:
	.byte	255                             ; @LPStart Encoding = omit
	.byte	155                             ; @TType Encoding = indirect pcrel sdata4
	.uleb128 Lttbase3-Lttbaseref3
Lttbaseref3:
	.byte	1                               ; Call site Encoding = uleb128
	.uleb128 Lcst_end3-Lcst_begin3
Lcst_begin3:
	.uleb128 Ltmp51-Lfunc_begin3            ; >> Call Site 1 <<
	.uleb128 Ltmp52-Ltmp51                  ;   Call between Ltmp51 and Ltmp52
	.uleb128 Ltmp53-Lfunc_begin3            ;     jumps to Ltmp53
	.byte	1                               ;   On action: 1
	.uleb128 Ltmp52-Lfunc_begin3            ; >> Call Site 2 <<
	.uleb128 Lfunc_end3-Ltmp52              ;   Call between Ltmp52 and Lfunc_end3
	.byte	0                               ;     has no landing pad
	.byte	0                               ;   On action: cleanup
Lcst_end3:
	.byte	127                             ; >> Action Record 1 <<
                                        ;   Filter TypeInfo -1
	.byte	0                               ;   No further actions
	.p2align	2
Lttbase3:
                                        ; >> Filter TypeInfos <<
	.byte	0
	.p2align	2
                                        ; -- End function
	.section	__TEXT,__text,regular,pure_instructions
	.p2align	2                               ; -- Begin function _ZNKSt3__19basic_iosIcNS_11char_traitsIcEEE5rdbufEv
__ZNKSt3__19basic_iosIcNS_11char_traitsIcEEE5rdbufEv: ; @_ZNKSt3__19basic_iosIcNS_11char_traitsIcEEE5rdbufEv
	.cfi_startproc
; %bb.0:
	sub	sp, sp, #32
	stp	x29, x30, [sp, #16]             ; 16-byte Folded Spill
	add	x29, sp, #16
	.cfi_def_cfa w29, 16
	.cfi_offset w30, -8
	.cfi_offset w29, -16
	str	x0, [sp, #8]
	ldr	x0, [sp, #8]
	bl	__ZNKSt3__18ios_base5rdbufEv
	ldp	x29, x30, [sp, #16]             ; 16-byte Folded Reload
	add	sp, sp, #32
	ret
	.cfi_endproc
                                        ; -- End function
	.p2align	2                               ; -- Begin function _ZNKSt3__18ios_base5rdbufEv
__ZNKSt3__18ios_base5rdbufEv:           ; @_ZNKSt3__18ios_base5rdbufEv
	.cfi_startproc
; %bb.0:
	sub	sp, sp, #16
	.cfi_def_cfa_offset 16
	str	x0, [sp, #8]
	ldr	x8, [sp, #8]
	ldr	x0, [x8, #40]
	add	sp, sp, #16
	ret
	.cfi_endproc
                                        ; -- End function
	.globl	__ZNSt3__111char_traitsIcE11eq_int_typeEii ; -- Begin function _ZNSt3__111char_traitsIcE11eq_int_typeEii
	.weak_definition	__ZNSt3__111char_traitsIcE11eq_int_typeEii
	.p2align	2
__ZNSt3__111char_traitsIcE11eq_int_typeEii: ; @_ZNSt3__111char_traitsIcE11eq_int_typeEii
	.cfi_startproc
; %bb.0:
	sub	sp, sp, #16
	.cfi_def_cfa_offset 16
	str	w0, [sp, #12]
	str	w1, [sp, #8]
	ldr	w8, [sp, #12]
	ldr	w9, [sp, #8]
	subs	w8, w8, w9
	cset	w8, eq
	and	w0, w8, #0x1
	add	sp, sp, #16
	ret
	.cfi_endproc
                                        ; -- End function
	.globl	__ZNSt3__111char_traitsIcE3eofEv ; -- Begin function _ZNSt3__111char_traitsIcE3eofEv
	.weak_definition	__ZNSt3__111char_traitsIcE3eofEv
	.p2align	2
__ZNSt3__111char_traitsIcE3eofEv:       ; @_ZNSt3__111char_traitsIcE3eofEv
	.cfi_startproc
; %bb.0:
	mov	w0, #-1
	ret
	.cfi_endproc
                                        ; -- End function
	.p2align	2                               ; -- Begin function _ZNKSt3__19basic_iosIcNS_11char_traitsIcEEE5widenEc
__ZNKSt3__19basic_iosIcNS_11char_traitsIcEEE5widenEc: ; @_ZNKSt3__19basic_iosIcNS_11char_traitsIcEEE5widenEc
Lfunc_begin4:
	.cfi_startproc
	.cfi_personality 155, ___gxx_personality_v0
	.cfi_lsda 16, Lexception4
; %bb.0:
	sub	sp, sp, #80
	stp	x29, x30, [sp, #64]             ; 16-byte Folded Spill
	add	x29, sp, #64
	.cfi_def_cfa w29, 16
	.cfi_offset w30, -8
	.cfi_offset w29, -16
	stur	x0, [x29, #-8]
	sturb	w1, [x29, #-9]
	ldur	x0, [x29, #-8]
	sub	x8, x29, #24
	str	x8, [sp, #8]                    ; 8-byte Folded Spill
	bl	__ZNKSt3__18ios_base6getlocEv
	ldr	x0, [sp, #8]                    ; 8-byte Folded Reload
Ltmp56:
	bl	__ZNSt3__1L9use_facetINS_5ctypeIcEEEERKT_RKNS_6localeE
	str	x0, [sp, #16]                   ; 8-byte Folded Spill
Ltmp57:
	b	LBB52_1
LBB52_1:
	ldr	x0, [sp, #16]                   ; 8-byte Folded Reload
	ldursb	w1, [x29, #-9]
Ltmp58:
	bl	__ZNKSt3__15ctypeIcE5widenEc
	str	w0, [sp, #4]                    ; 4-byte Folded Spill
Ltmp59:
	b	LBB52_2
LBB52_2:
	sub	x0, x29, #24
	bl	__ZNSt3__16localeD1Ev
	ldr	w8, [sp, #4]                    ; 4-byte Folded Reload
	sxtb	w0, w8
	ldp	x29, x30, [sp, #64]             ; 16-byte Folded Reload
	add	sp, sp, #80
	ret
LBB52_3:
Ltmp60:
	mov	x8, x1
	str	x0, [sp, #32]
	str	w8, [sp, #28]
Ltmp61:
	sub	x0, x29, #24
	bl	__ZNSt3__16localeD1Ev
Ltmp62:
	b	LBB52_4
LBB52_4:
	b	LBB52_5
LBB52_5:
	ldr	x0, [sp, #32]
	bl	__Unwind_Resume
LBB52_6:
Ltmp63:
	bl	___clang_call_terminate
Lfunc_end4:
	.cfi_endproc
	.section	__TEXT,__gcc_except_tab
	.p2align	2
GCC_except_table52:
Lexception4:
	.byte	255                             ; @LPStart Encoding = omit
	.byte	155                             ; @TType Encoding = indirect pcrel sdata4
	.uleb128 Lttbase4-Lttbaseref4
Lttbaseref4:
	.byte	1                               ; Call site Encoding = uleb128
	.uleb128 Lcst_end4-Lcst_begin4
Lcst_begin4:
	.uleb128 Lfunc_begin4-Lfunc_begin4      ; >> Call Site 1 <<
	.uleb128 Ltmp56-Lfunc_begin4            ;   Call between Lfunc_begin4 and Ltmp56
	.byte	0                               ;     has no landing pad
	.byte	0                               ;   On action: cleanup
	.uleb128 Ltmp56-Lfunc_begin4            ; >> Call Site 2 <<
	.uleb128 Ltmp59-Ltmp56                  ;   Call between Ltmp56 and Ltmp59
	.uleb128 Ltmp60-Lfunc_begin4            ;     jumps to Ltmp60
	.byte	0                               ;   On action: cleanup
	.uleb128 Ltmp59-Lfunc_begin4            ; >> Call Site 3 <<
	.uleb128 Ltmp61-Ltmp59                  ;   Call between Ltmp59 and Ltmp61
	.byte	0                               ;     has no landing pad
	.byte	0                               ;   On action: cleanup
	.uleb128 Ltmp61-Lfunc_begin4            ; >> Call Site 4 <<
	.uleb128 Ltmp62-Ltmp61                  ;   Call between Ltmp61 and Ltmp62
	.uleb128 Ltmp63-Lfunc_begin4            ;     jumps to Ltmp63
	.byte	1                               ;   On action: 1
	.uleb128 Ltmp62-Lfunc_begin4            ; >> Call Site 5 <<
	.uleb128 Lfunc_end4-Ltmp62              ;   Call between Ltmp62 and Lfunc_end4
	.byte	0                               ;     has no landing pad
	.byte	0                               ;   On action: cleanup
Lcst_end4:
	.byte	1                               ; >> Action Record 1 <<
                                        ;   Catch TypeInfo 1
	.byte	0                               ;   No further actions
	.p2align	2
                                        ; >> Catch TypeInfos <<
	.long	0                               ; TypeInfo 1
Lttbase4:
	.p2align	2
                                        ; -- End function
	.section	__TEXT,__text,regular,pure_instructions
	.p2align	2                               ; -- Begin function _ZNSt3__1L9use_facetINS_5ctypeIcEEEERKT_RKNS_6localeE
__ZNSt3__1L9use_facetINS_5ctypeIcEEEERKT_RKNS_6localeE: ; @_ZNSt3__1L9use_facetINS_5ctypeIcEEEERKT_RKNS_6localeE
	.cfi_startproc
; %bb.0:
	sub	sp, sp, #32
	stp	x29, x30, [sp, #16]             ; 16-byte Folded Spill
	add	x29, sp, #16
	.cfi_def_cfa w29, 16
	.cfi_offset w30, -8
	.cfi_offset w29, -16
	str	x0, [sp, #8]
	ldr	x0, [sp, #8]
	adrp	x1, __ZNSt3__15ctypeIcE2idE@GOTPAGE
	ldr	x1, [x1, __ZNSt3__15ctypeIcE2idE@GOTPAGEOFF]
	bl	__ZNKSt3__16locale9use_facetERNS0_2idE
	ldp	x29, x30, [sp, #16]             ; 16-byte Folded Reload
	add	sp, sp, #32
	ret
	.cfi_endproc
                                        ; -- End function
	.p2align	2                               ; -- Begin function _ZNKSt3__15ctypeIcE5widenEc
__ZNKSt3__15ctypeIcE5widenEc:           ; @_ZNKSt3__15ctypeIcE5widenEc
	.cfi_startproc
; %bb.0:
	sub	sp, sp, #32
	stp	x29, x30, [sp, #16]             ; 16-byte Folded Spill
	add	x29, sp, #16
	.cfi_def_cfa w29, 16
	.cfi_offset w30, -8
	.cfi_offset w29, -16
	str	x0, [sp, #8]
	strb	w1, [sp, #7]
	ldr	x0, [sp, #8]
	ldrsb	w1, [sp, #7]
	ldr	x8, [x0]
	ldr	x8, [x8, #56]
	blr	x8
	sxtb	w0, w0
	ldp	x29, x30, [sp, #16]             ; 16-byte Folded Reload
	add	sp, sp, #32
	ret
	.cfi_endproc
                                        ; -- End function
	.p2align	2                               ; -- Begin function _ZNSt3__18ios_base8setstateEj
__ZNSt3__18ios_base8setstateEj:         ; @_ZNSt3__18ios_base8setstateEj
	.cfi_startproc
; %bb.0:
	sub	sp, sp, #32
	stp	x29, x30, [sp, #16]             ; 16-byte Folded Spill
	add	x29, sp, #16
	.cfi_def_cfa w29, 16
	.cfi_offset w30, -8
	.cfi_offset w29, -16
	str	x0, [sp, #8]
	str	w1, [sp, #4]
	ldr	x0, [sp, #8]
	ldr	w8, [x0, #32]
	ldr	w9, [sp, #4]
	orr	w1, w8, w9
	bl	__ZNSt3__18ios_base5clearEj
	ldp	x29, x30, [sp, #16]             ; 16-byte Folded Reload
	add	sp, sp, #32
	ret
	.cfi_endproc
                                        ; -- End function
	.globl	_stack                          ; @stack
.zerofill __DATA,__common,_stack,8,3
	.globl	_currentThread                  ; @currentThread
.zerofill __DATA,__common,_currentThread,4,2
	.section	__DATA,__data
	.globl	_numThreads                     ; @numThreads
	.p2align	2
_numThreads:
	.long	1                               ; 0x1

	.globl	_threadStates                   ; @threadStates
.zerofill __DATA,__common,_threadStates,408,3
	.section	__TEXT,__cstring,cstring_literals
l_.str:                                 ; @.str
	.asciz	"inside startThread"

l_.str.1:                               ; @.str.1
	.asciz	"inside startThread: after saveRegisters"

l_.str.2:                               ; @.str.2
	.asciz	"currentThread: "

l_.str.3:                               ; @.str.3
	.asciz	" numThreads: "

l_.str.4:                               ; @.str.4
	.asciz	"Main 1 says Hello"

l_.str.5:                               ; @.str.5
	.asciz	"Main 2 says Hello"

l_.str.6:                               ; @.str.6
	.asciz	"Main Start Main 1"

l_.str.7:                               ; @.str.7
	.asciz	"Main Start Main2"

l_.str.8:                               ; @.str.8
	.asciz	"Share loop once in main "

.subsections_via_symbols
